
ConveyerBelt.elf:     file format elf32-avr

Sections:
Idx Name          Size      VMA       LMA       File off  Algn
  0 .data         00000000  00800100  00000672  00000706  2**0
                  CONTENTS, ALLOC, LOAD, DATA
  1 .text         00000672  00000000  00000000  00000094  2**1
                  CONTENTS, ALLOC, LOAD, READONLY, CODE
  2 .bss          00000144  00800100  00800100  00000706  2**0
                  ALLOC
  3 .stab         000006cc  00000000  00000000  00000708  2**2
                  CONTENTS, READONLY, DEBUGGING
  4 .stabstr      00000085  00000000  00000000  00000dd4  2**0
                  CONTENTS, READONLY, DEBUGGING
  5 .debug_aranges 00000140  00000000  00000000  00000e60  2**3
                  CONTENTS, READONLY, DEBUGGING
  6 .debug_info   000009a8  00000000  00000000  00000fa0  2**0
                  CONTENTS, READONLY, DEBUGGING
  7 .debug_abbrev 0000036b  00000000  00000000  00001948  2**0
                  CONTENTS, READONLY, DEBUGGING
  8 .debug_line   00000776  00000000  00000000  00001cb3  2**0
                  CONTENTS, READONLY, DEBUGGING
  9 .debug_frame  000003cc  00000000  00000000  0000242c  2**2
                  CONTENTS, READONLY, DEBUGGING
 10 .debug_str    00000260  00000000  00000000  000027f8  2**0
                  CONTENTS, READONLY, DEBUGGING
 11 .debug_loc    0000088e  00000000  00000000  00002a58  2**0
                  CONTENTS, READONLY, DEBUGGING

Disassembly of section .text:

00000000 <__vectors>:
   0:	0c 94 4c 00 	jmp	0x98	; 0x98 <__ctors_end>
   4:	0c 94 ad 00 	jmp	0x15a	; 0x15a <__vector_1>
   8:	0c 94 d7 00 	jmp	0x1ae	; 0x1ae <__vector_2>
   c:	0c 94 01 01 	jmp	0x202	; 0x202 <__vector_3>
  10:	0c 94 2b 01 	jmp	0x256	; 0x256 <__vector_4>
  14:	0c 94 55 01 	jmp	0x2aa	; 0x2aa <__vector_5>
  18:	0c 94 7f 01 	jmp	0x2fe	; 0x2fe <__vector_6>
  1c:	0c 94 a9 01 	jmp	0x352	; 0x352 <__vector_7>
  20:	0c 94 6c 00 	jmp	0xd8	; 0xd8 <__bad_interrupt>
  24:	0c 94 6c 00 	jmp	0xd8	; 0xd8 <__bad_interrupt>
  28:	0c 94 6c 00 	jmp	0xd8	; 0xd8 <__bad_interrupt>
  2c:	0c 94 6c 00 	jmp	0xd8	; 0xd8 <__bad_interrupt>
  30:	0c 94 6c 00 	jmp	0xd8	; 0xd8 <__bad_interrupt>
  34:	0c 94 6c 00 	jmp	0xd8	; 0xd8 <__bad_interrupt>
  38:	0c 94 6c 00 	jmp	0xd8	; 0xd8 <__bad_interrupt>
  3c:	0c 94 6c 00 	jmp	0xd8	; 0xd8 <__bad_interrupt>
  40:	0c 94 6c 00 	jmp	0xd8	; 0xd8 <__bad_interrupt>
  44:	0c 94 6c 00 	jmp	0xd8	; 0xd8 <__bad_interrupt>
  48:	0c 94 6c 00 	jmp	0xd8	; 0xd8 <__bad_interrupt>
  4c:	0c 94 6c 00 	jmp	0xd8	; 0xd8 <__bad_interrupt>
  50:	0c 94 6c 00 	jmp	0xd8	; 0xd8 <__bad_interrupt>
  54:	0c 94 6c 00 	jmp	0xd8	; 0xd8 <__bad_interrupt>
  58:	0c 94 6c 00 	jmp	0xd8	; 0xd8 <__bad_interrupt>
  5c:	0c 94 6c 00 	jmp	0xd8	; 0xd8 <__bad_interrupt>
  60:	0c 94 6c 00 	jmp	0xd8	; 0xd8 <__bad_interrupt>
  64:	0c 94 6c 00 	jmp	0xd8	; 0xd8 <__bad_interrupt>
  68:	0c 94 6c 00 	jmp	0xd8	; 0xd8 <__bad_interrupt>
  6c:	0c 94 6c 00 	jmp	0xd8	; 0xd8 <__bad_interrupt>
  70:	0c 94 6c 00 	jmp	0xd8	; 0xd8 <__bad_interrupt>
  74:	0c 94 6c 00 	jmp	0xd8	; 0xd8 <__bad_interrupt>
  78:	0c 94 6c 00 	jmp	0xd8	; 0xd8 <__bad_interrupt>
  7c:	0c 94 6c 00 	jmp	0xd8	; 0xd8 <__bad_interrupt>
  80:	0c 94 6c 00 	jmp	0xd8	; 0xd8 <__bad_interrupt>
  84:	0c 94 6c 00 	jmp	0xd8	; 0xd8 <__bad_interrupt>
  88:	0c 94 6c 00 	jmp	0xd8	; 0xd8 <__bad_interrupt>
  8c:	0c 94 6c 00 	jmp	0xd8	; 0xd8 <__bad_interrupt>
  90:	0c 94 6c 00 	jmp	0xd8	; 0xd8 <__bad_interrupt>
  94:	0c 94 6c 00 	jmp	0xd8	; 0xd8 <__bad_interrupt>

00000098 <__ctors_end>:
  98:	11 24       	eor	r1, r1
  9a:	1f be       	out	0x3f, r1	; 63
  9c:	cf ef       	ldi	r28, 0xFF	; 255
  9e:	d0 e2       	ldi	r29, 0x20	; 32
  a0:	de bf       	out	0x3e, r29	; 62
  a2:	cd bf       	out	0x3d, r28	; 61

000000a4 <__do_copy_data>:
  a4:	11 e0       	ldi	r17, 0x01	; 1
  a6:	a0 e0       	ldi	r26, 0x00	; 0
  a8:	b1 e0       	ldi	r27, 0x01	; 1
  aa:	e2 e7       	ldi	r30, 0x72	; 114
  ac:	f6 e0       	ldi	r31, 0x06	; 6
  ae:	00 e0       	ldi	r16, 0x00	; 0
  b0:	0b bf       	out	0x3b, r16	; 59
  b2:	02 c0       	rjmp	.+4      	; 0xb8 <__do_copy_data+0x14>
  b4:	07 90       	elpm	r0, Z+
  b6:	0d 92       	st	X+, r0
  b8:	a0 30       	cpi	r26, 0x00	; 0
  ba:	b1 07       	cpc	r27, r17
  bc:	d9 f7       	brne	.-10     	; 0xb4 <__do_copy_data+0x10>
  be:	1b be       	out	0x3b, r1	; 59

000000c0 <__do_clear_bss>:
  c0:	12 e0       	ldi	r17, 0x02	; 2
  c2:	a0 e0       	ldi	r26, 0x00	; 0
  c4:	b1 e0       	ldi	r27, 0x01	; 1
  c6:	01 c0       	rjmp	.+2      	; 0xca <.do_clear_bss_start>

000000c8 <.do_clear_bss_loop>:
  c8:	1d 92       	st	X+, r1

000000ca <.do_clear_bss_start>:
  ca:	a4 34       	cpi	r26, 0x44	; 68
  cc:	b1 07       	cpc	r27, r17
  ce:	e1 f7       	brne	.-8      	; 0xc8 <.do_clear_bss_loop>
  d0:	0e 94 d3 01 	call	0x3a6	; 0x3a6 <main>
  d4:	0c 94 37 03 	jmp	0x66e	; 0x66e <_exit>

000000d8 <__bad_interrupt>:
  d8:	0c 94 00 00 	jmp	0	; 0x0 <__vectors>

000000dc <vectorInterrupts>:
   external interrupts on the desired pins
   */
void vectorInterrupts() {
	
	// disable external interrupts temporarily
	EIMSK &= 0b10000000;
  dc:	8d b3       	in	r24, 0x1d	; 29
  de:	80 78       	andi	r24, 0x80	; 128
  e0:	8d bb       	out	0x1d, r24	; 29
	
	// Set all interrupt pins to input
	DDRD = DDRD & 0xF0;
  e2:	8a b1       	in	r24, 0x0a	; 10
  e4:	80 7f       	andi	r24, 0xF0	; 240
  e6:	8a b9       	out	0x0a, r24	; 10
	DDRE = DDRE & 0x0F;
  e8:	8d b1       	in	r24, 0x0d	; 13
  ea:	8f 70       	andi	r24, 0x0F	; 15
  ec:	8d b9       	out	0x0d, r24	; 13
	
	// INT0 - First Laser
	// Falling-edge interrupt
	EICRA |= _BV(ISC01);
  ee:	e9 e6       	ldi	r30, 0x69	; 105
  f0:	f0 e0       	ldi	r31, 0x00	; 0
  f2:	80 81       	ld	r24, Z
  f4:	82 60       	ori	r24, 0x02	; 2
  f6:	80 83       	st	Z, r24
	EICRA &= ~(_BV(ISC00));
  f8:	80 81       	ld	r24, Z
  fa:	8e 7f       	andi	r24, 0xFE	; 254
  fc:	80 83       	st	Z, r24
	
	// INT1 - Metal Detector
	// Falling-edge interrupt
	EICRA |= _BV(ISC11);
  fe:	80 81       	ld	r24, Z
 100:	88 60       	ori	r24, 0x08	; 8
 102:	80 83       	st	Z, r24
	EICRA &= ~(_BV(ISC10));
 104:	80 81       	ld	r24, Z
 106:	8b 7f       	andi	r24, 0xFB	; 251
 108:	80 83       	st	Z, r24
	
	// INT2 - Second Laser
	// Rising and falling edge interrupt
	EICRA &= ~(_BV(ISC21));
 10a:	80 81       	ld	r24, Z
 10c:	8f 7d       	andi	r24, 0xDF	; 223
 10e:	80 83       	st	Z, r24
	EICRA |= _BV(ISC20);
 110:	80 81       	ld	r24, Z
 112:	80 61       	ori	r24, 0x10	; 16
 114:	80 83       	st	Z, r24
	
	// INT3 - Exit Sensor
	// Falling-edge interrupt
	EICRA |= _BV(ISC31);
 116:	80 81       	ld	r24, Z
 118:	80 68       	ori	r24, 0x80	; 128
 11a:	80 83       	st	Z, r24
	EICRA &= ~(_BV(ISC30));	
 11c:	80 81       	ld	r24, Z
 11e:	8f 7b       	andi	r24, 0xBF	; 191
 120:	80 83       	st	Z, r24
	
	// INT4 - Hall-effect sensor
	// Falling-edge interrupt
	EICRB |= _BV(ISC41);
 122:	ea e6       	ldi	r30, 0x6A	; 106
 124:	f0 e0       	ldi	r31, 0x00	; 0
 126:	80 81       	ld	r24, Z
 128:	82 60       	ori	r24, 0x02	; 2
 12a:	80 83       	st	Z, r24
	EICRB &= ~(_BV(ISC40));
 12c:	80 81       	ld	r24, Z
 12e:	8e 7f       	andi	r24, 0xFE	; 254
 130:	80 83       	st	Z, r24
	
	// INT5 - Button2
	// Falling-edge interrupt
	EICRB |= _BV(ISC51);
 132:	80 81       	ld	r24, Z
 134:	88 60       	ori	r24, 0x08	; 8
 136:	80 83       	st	Z, r24
	EICRB &= ~(_BV(ISC50));
 138:	80 81       	ld	r24, Z
 13a:	8b 7f       	andi	r24, 0xFB	; 251
 13c:	80 83       	st	Z, r24
	
	// INT6 - Button1
	// Falling-edge interrupt
	EICRB |= _BV(ISC61);
 13e:	80 81       	ld	r24, Z
 140:	80 62       	ori	r24, 0x20	; 32
 142:	80 83       	st	Z, r24
	EICRB &= ~(_BV(ISC60));
 144:	80 81       	ld	r24, Z
 146:	8f 7e       	andi	r24, 0xEF	; 239
 148:	80 83       	st	Z, r24
	
	
	// Enable interrupts
	EIMSK |= 0b01111111;
 14a:	8d b3       	in	r24, 0x1d	; 29
 14c:	8f 67       	ori	r24, 0x7F	; 127
 14e:	8d bb       	out	0x1d, r24	; 29
	EIFR |= 0b01111111;
 150:	8c b3       	in	r24, 0x1c	; 28
 152:	8f 67       	ori	r24, 0x7F	; 127
 154:	8c bb       	out	0x1c, r24	; 28
	sei();
 156:	78 94       	sei
}
 158:	08 95       	ret

0000015a <__vector_1>:

/* ISR(INT0_vect)
   Purpose: Falling-edge interrupt vector
   for FIRST LASER
   */
ISR(INT0_vect){
 15a:	1f 92       	push	r1
 15c:	0f 92       	push	r0
 15e:	0f b6       	in	r0, 0x3f	; 63
 160:	0f 92       	push	r0
 162:	0b b6       	in	r0, 0x3b	; 59
 164:	0f 92       	push	r0
 166:	11 24       	eor	r1, r1
 168:	2f 93       	push	r18
 16a:	3f 93       	push	r19
 16c:	4f 93       	push	r20
 16e:	5f 93       	push	r21
 170:	6f 93       	push	r22
 172:	7f 93       	push	r23
 174:	8f 93       	push	r24
 176:	9f 93       	push	r25
 178:	af 93       	push	r26
 17a:	bf 93       	push	r27
 17c:	ef 93       	push	r30
 17e:	ff 93       	push	r31
	writeDecInt(0);
 180:	80 e0       	ldi	r24, 0x00	; 0
 182:	90 e0       	ldi	r25, 0x00	; 0
 184:	0e 94 9c 02 	call	0x538	; 0x538 <writeDecInt>
}
 188:	ff 91       	pop	r31
 18a:	ef 91       	pop	r30
 18c:	bf 91       	pop	r27
 18e:	af 91       	pop	r26
 190:	9f 91       	pop	r25
 192:	8f 91       	pop	r24
 194:	7f 91       	pop	r23
 196:	6f 91       	pop	r22
 198:	5f 91       	pop	r21
 19a:	4f 91       	pop	r20
 19c:	3f 91       	pop	r19
 19e:	2f 91       	pop	r18
 1a0:	0f 90       	pop	r0
 1a2:	0b be       	out	0x3b, r0	; 59
 1a4:	0f 90       	pop	r0
 1a6:	0f be       	out	0x3f, r0	; 63
 1a8:	0f 90       	pop	r0
 1aa:	1f 90       	pop	r1
 1ac:	18 95       	reti

000001ae <__vector_2>:

/* ISR(INT1_vect)
   Purpose: Falling-edge interrupt vector
   for INDUCTIVE SENSOR
   */
ISR(INT1_vect){
 1ae:	1f 92       	push	r1
 1b0:	0f 92       	push	r0
 1b2:	0f b6       	in	r0, 0x3f	; 63
 1b4:	0f 92       	push	r0
 1b6:	0b b6       	in	r0, 0x3b	; 59
 1b8:	0f 92       	push	r0
 1ba:	11 24       	eor	r1, r1
 1bc:	2f 93       	push	r18
 1be:	3f 93       	push	r19
 1c0:	4f 93       	push	r20
 1c2:	5f 93       	push	r21
 1c4:	6f 93       	push	r22
 1c6:	7f 93       	push	r23
 1c8:	8f 93       	push	r24
 1ca:	9f 93       	push	r25
 1cc:	af 93       	push	r26
 1ce:	bf 93       	push	r27
 1d0:	ef 93       	push	r30
 1d2:	ff 93       	push	r31
	writeDecInt(1);
 1d4:	81 e0       	ldi	r24, 0x01	; 1
 1d6:	90 e0       	ldi	r25, 0x00	; 0
 1d8:	0e 94 9c 02 	call	0x538	; 0x538 <writeDecInt>
}
 1dc:	ff 91       	pop	r31
 1de:	ef 91       	pop	r30
 1e0:	bf 91       	pop	r27
 1e2:	af 91       	pop	r26
 1e4:	9f 91       	pop	r25
 1e6:	8f 91       	pop	r24
 1e8:	7f 91       	pop	r23
 1ea:	6f 91       	pop	r22
 1ec:	5f 91       	pop	r21
 1ee:	4f 91       	pop	r20
 1f0:	3f 91       	pop	r19
 1f2:	2f 91       	pop	r18
 1f4:	0f 90       	pop	r0
 1f6:	0b be       	out	0x3b, r0	; 59
 1f8:	0f 90       	pop	r0
 1fa:	0f be       	out	0x3f, r0	; 63
 1fc:	0f 90       	pop	r0
 1fe:	1f 90       	pop	r1
 200:	18 95       	reti

00000202 <__vector_3>:

/* ISR(INT2_vect)
   Purpose: Rising and falling-edge interrupt
   vector for SECOND LASER
   */
ISR(INT2_vect){
 202:	1f 92       	push	r1
 204:	0f 92       	push	r0
 206:	0f b6       	in	r0, 0x3f	; 63
 208:	0f 92       	push	r0
 20a:	0b b6       	in	r0, 0x3b	; 59
 20c:	0f 92       	push	r0
 20e:	11 24       	eor	r1, r1
 210:	2f 93       	push	r18
 212:	3f 93       	push	r19
 214:	4f 93       	push	r20
 216:	5f 93       	push	r21
 218:	6f 93       	push	r22
 21a:	7f 93       	push	r23
 21c:	8f 93       	push	r24
 21e:	9f 93       	push	r25
 220:	af 93       	push	r26
 222:	bf 93       	push	r27
 224:	ef 93       	push	r30
 226:	ff 93       	push	r31
	writeDecInt(2);
 228:	82 e0       	ldi	r24, 0x02	; 2
 22a:	90 e0       	ldi	r25, 0x00	; 0
 22c:	0e 94 9c 02 	call	0x538	; 0x538 <writeDecInt>
}
 230:	ff 91       	pop	r31
 232:	ef 91       	pop	r30
 234:	bf 91       	pop	r27
 236:	af 91       	pop	r26
 238:	9f 91       	pop	r25
 23a:	8f 91       	pop	r24
 23c:	7f 91       	pop	r23
 23e:	6f 91       	pop	r22
 240:	5f 91       	pop	r21
 242:	4f 91       	pop	r20
 244:	3f 91       	pop	r19
 246:	2f 91       	pop	r18
 248:	0f 90       	pop	r0
 24a:	0b be       	out	0x3b, r0	; 59
 24c:	0f 90       	pop	r0
 24e:	0f be       	out	0x3f, r0	; 63
 250:	0f 90       	pop	r0
 252:	1f 90       	pop	r1
 254:	18 95       	reti

00000256 <__vector_4>:

/* ISR(INT3_vect)
   Purpose: Falling-edge interrupt vector
   for EXIT SENSOR
   */
ISR(INT3_vect) {
 256:	1f 92       	push	r1
 258:	0f 92       	push	r0
 25a:	0f b6       	in	r0, 0x3f	; 63
 25c:	0f 92       	push	r0
 25e:	0b b6       	in	r0, 0x3b	; 59
 260:	0f 92       	push	r0
 262:	11 24       	eor	r1, r1
 264:	2f 93       	push	r18
 266:	3f 93       	push	r19
 268:	4f 93       	push	r20
 26a:	5f 93       	push	r21
 26c:	6f 93       	push	r22
 26e:	7f 93       	push	r23
 270:	8f 93       	push	r24
 272:	9f 93       	push	r25
 274:	af 93       	push	r26
 276:	bf 93       	push	r27
 278:	ef 93       	push	r30
 27a:	ff 93       	push	r31
	writeDecInt(3);
 27c:	83 e0       	ldi	r24, 0x03	; 3
 27e:	90 e0       	ldi	r25, 0x00	; 0
 280:	0e 94 9c 02 	call	0x538	; 0x538 <writeDecInt>
}
 284:	ff 91       	pop	r31
 286:	ef 91       	pop	r30
 288:	bf 91       	pop	r27
 28a:	af 91       	pop	r26
 28c:	9f 91       	pop	r25
 28e:	8f 91       	pop	r24
 290:	7f 91       	pop	r23
 292:	6f 91       	pop	r22
 294:	5f 91       	pop	r21
 296:	4f 91       	pop	r20
 298:	3f 91       	pop	r19
 29a:	2f 91       	pop	r18
 29c:	0f 90       	pop	r0
 29e:	0b be       	out	0x3b, r0	; 59
 2a0:	0f 90       	pop	r0
 2a2:	0f be       	out	0x3f, r0	; 63
 2a4:	0f 90       	pop	r0
 2a6:	1f 90       	pop	r1
 2a8:	18 95       	reti

000002aa <__vector_5>:

/* ISR(INT4_vect)
   Purpose: Falling-edge interrupt vector
   for HALL EFFECT SENSOR
   */
ISR(INT4_vect) {
 2aa:	1f 92       	push	r1
 2ac:	0f 92       	push	r0
 2ae:	0f b6       	in	r0, 0x3f	; 63
 2b0:	0f 92       	push	r0
 2b2:	0b b6       	in	r0, 0x3b	; 59
 2b4:	0f 92       	push	r0
 2b6:	11 24       	eor	r1, r1
 2b8:	2f 93       	push	r18
 2ba:	3f 93       	push	r19
 2bc:	4f 93       	push	r20
 2be:	5f 93       	push	r21
 2c0:	6f 93       	push	r22
 2c2:	7f 93       	push	r23
 2c4:	8f 93       	push	r24
 2c6:	9f 93       	push	r25
 2c8:	af 93       	push	r26
 2ca:	bf 93       	push	r27
 2cc:	ef 93       	push	r30
 2ce:	ff 93       	push	r31
	writeDecInt(4);
 2d0:	84 e0       	ldi	r24, 0x04	; 4
 2d2:	90 e0       	ldi	r25, 0x00	; 0
 2d4:	0e 94 9c 02 	call	0x538	; 0x538 <writeDecInt>
}
 2d8:	ff 91       	pop	r31
 2da:	ef 91       	pop	r30
 2dc:	bf 91       	pop	r27
 2de:	af 91       	pop	r26
 2e0:	9f 91       	pop	r25
 2e2:	8f 91       	pop	r24
 2e4:	7f 91       	pop	r23
 2e6:	6f 91       	pop	r22
 2e8:	5f 91       	pop	r21
 2ea:	4f 91       	pop	r20
 2ec:	3f 91       	pop	r19
 2ee:	2f 91       	pop	r18
 2f0:	0f 90       	pop	r0
 2f2:	0b be       	out	0x3b, r0	; 59
 2f4:	0f 90       	pop	r0
 2f6:	0f be       	out	0x3f, r0	; 63
 2f8:	0f 90       	pop	r0
 2fa:	1f 90       	pop	r1
 2fc:	18 95       	reti

000002fe <__vector_6>:

/* ISR(INT5_vect)
   Purpose: Falling-edge interrupt vector
   for BUTTON 2
   */
ISR(INT5_vect) {
 2fe:	1f 92       	push	r1
 300:	0f 92       	push	r0
 302:	0f b6       	in	r0, 0x3f	; 63
 304:	0f 92       	push	r0
 306:	0b b6       	in	r0, 0x3b	; 59
 308:	0f 92       	push	r0
 30a:	11 24       	eor	r1, r1
 30c:	2f 93       	push	r18
 30e:	3f 93       	push	r19
 310:	4f 93       	push	r20
 312:	5f 93       	push	r21
 314:	6f 93       	push	r22
 316:	7f 93       	push	r23
 318:	8f 93       	push	r24
 31a:	9f 93       	push	r25
 31c:	af 93       	push	r26
 31e:	bf 93       	push	r27
 320:	ef 93       	push	r30
 322:	ff 93       	push	r31
	writeDecInt(5);
 324:	85 e0       	ldi	r24, 0x05	; 5
 326:	90 e0       	ldi	r25, 0x00	; 0
 328:	0e 94 9c 02 	call	0x538	; 0x538 <writeDecInt>
}
 32c:	ff 91       	pop	r31
 32e:	ef 91       	pop	r30
 330:	bf 91       	pop	r27
 332:	af 91       	pop	r26
 334:	9f 91       	pop	r25
 336:	8f 91       	pop	r24
 338:	7f 91       	pop	r23
 33a:	6f 91       	pop	r22
 33c:	5f 91       	pop	r21
 33e:	4f 91       	pop	r20
 340:	3f 91       	pop	r19
 342:	2f 91       	pop	r18
 344:	0f 90       	pop	r0
 346:	0b be       	out	0x3b, r0	; 59
 348:	0f 90       	pop	r0
 34a:	0f be       	out	0x3f, r0	; 63
 34c:	0f 90       	pop	r0
 34e:	1f 90       	pop	r1
 350:	18 95       	reti

00000352 <__vector_7>:

/* ISR(INT6_vect)
   Purpose: Falling-edge interrupt vector
   for BUTTON 1
   */
ISR(INT6_vect){
 352:	1f 92       	push	r1
 354:	0f 92       	push	r0
 356:	0f b6       	in	r0, 0x3f	; 63
 358:	0f 92       	push	r0
 35a:	0b b6       	in	r0, 0x3b	; 59
 35c:	0f 92       	push	r0
 35e:	11 24       	eor	r1, r1
 360:	2f 93       	push	r18
 362:	3f 93       	push	r19
 364:	4f 93       	push	r20
 366:	5f 93       	push	r21
 368:	6f 93       	push	r22
 36a:	7f 93       	push	r23
 36c:	8f 93       	push	r24
 36e:	9f 93       	push	r25
 370:	af 93       	push	r26
 372:	bf 93       	push	r27
 374:	ef 93       	push	r30
 376:	ff 93       	push	r31
	writeDecInt(6);
 378:	86 e0       	ldi	r24, 0x06	; 6
 37a:	90 e0       	ldi	r25, 0x00	; 0
 37c:	0e 94 9c 02 	call	0x538	; 0x538 <writeDecInt>
 380:	ff 91       	pop	r31
 382:	ef 91       	pop	r30
 384:	bf 91       	pop	r27
 386:	af 91       	pop	r26
 388:	9f 91       	pop	r25
 38a:	8f 91       	pop	r24
 38c:	7f 91       	pop	r23
 38e:	6f 91       	pop	r22
 390:	5f 91       	pop	r21
 392:	4f 91       	pop	r20
 394:	3f 91       	pop	r19
 396:	2f 91       	pop	r18
 398:	0f 90       	pop	r0
 39a:	0b be       	out	0x3b, r0	; 59
 39c:	0f 90       	pop	r0
 39e:	0f be       	out	0x3f, r0	; 63
 3a0:	0f 90       	pop	r0
 3a2:	1f 90       	pop	r1
 3a4:	18 95       	reti

000003a6 <main>:

int main(void)
{
	// Set the dev board's clock speed to the external oscillator with
	// no prescaler (8MHz)
	CLKPR = (1<<CLKPCE);
 3a6:	e1 e6       	ldi	r30, 0x61	; 97
 3a8:	f0 e0       	ldi	r31, 0x00	; 0
 3aa:	80 e8       	ldi	r24, 0x80	; 128
 3ac:	80 83       	st	Z, r24
	CLKPR = 0;
 3ae:	10 82       	st	Z, r1
	
	// Initialize hardware timer
	initializeTimer();
 3b0:	0e 94 e9 02 	call	0x5d2	; 0x5d2 <initializeTimer>
	
	// enable output
	DDRA = 0xFF;
 3b4:	8f ef       	ldi	r24, 0xFF	; 255
 3b6:	81 b9       	out	0x01, r24	; 1
	// vector interrupts
	//vectorInterrupts();
	
    while(1)
    {
		for(int i=60; i > 0; i--) {
 3b8:	cc e3       	ldi	r28, 0x3C	; 60
 3ba:	d0 e0       	ldi	r29, 0x00	; 0
 3bc:	08 c0       	rjmp	.+16     	; 0x3ce <main+0x28>
			writeDecInt(i);
 3be:	ce 01       	movw	r24, r28
 3c0:	0e 94 9c 02 	call	0x538	; 0x538 <writeDecInt>
			delaynms(1000);
 3c4:	88 ee       	ldi	r24, 0xE8	; 232
 3c6:	93 e0       	ldi	r25, 0x03	; 3
 3c8:	0e 94 ef 02 	call	0x5de	; 0x5de <delaynms>
	// vector interrupts
	//vectorInterrupts();
	
    while(1)
    {
		for(int i=60; i > 0; i--) {
 3cc:	21 97       	sbiw	r28, 0x01	; 1
 3ce:	1c 16       	cp	r1, r28
 3d0:	1d 06       	cpc	r1, r29
 3d2:	ac f3       	brlt	.-22     	; 0x3be <main+0x18>
			writeDecInt(i);
			delaynms(1000);
		}
		writeHexInt(0xB00);
 3d4:	80 e0       	ldi	r24, 0x00	; 0
 3d6:	9b e0       	ldi	r25, 0x0B	; 11
 3d8:	0e 94 bd 02 	call	0x57a	; 0x57a <writeHexInt>
		delaynms(2000);	
 3dc:	80 ed       	ldi	r24, 0xD0	; 208
 3de:	97 e0       	ldi	r25, 0x07	; 7
 3e0:	0e 94 ef 02 	call	0x5de	; 0x5de <delaynms>
	// vector interrupts
	//vectorInterrupts();
	
    while(1)
    {
		for(int i=60; i > 0; i--) {
 3e4:	cc e3       	ldi	r28, 0x3C	; 60
 3e6:	d0 e0       	ldi	r29, 0x00	; 0
			delaynms(1000);
		}
		writeHexInt(0xB00);
		delaynms(2000);	
        //TODO:: Please write your application code 
    }
 3e8:	f2 cf       	rjmp	.-28     	; 0x3ce <main+0x28>

000003ea <initRingBuf>:

/* void initRingBuf()
   Purpose: initializes the ring buffer
   */
void initRingBuf() {
	ringTop = 0;
 3ea:	10 92 03 01 	sts	0x0103, r1
 3ee:	10 92 02 01 	sts	0x0102, r1
	ringBottom = 0;
 3f2:	10 92 01 01 	sts	0x0101, r1
 3f6:	10 92 00 01 	sts	0x0100, r1
}
 3fa:	08 95       	ret

000003fc <getBufOffset>:
   Purpose: gets the index which is an integer offset of the given
   index.
   */
int getBufOffset(int index, int offset) {
	// case for wrapping around top end
	if((index + offset) > (RING_BUF_SIZE - 1)) {
 3fc:	86 0f       	add	r24, r22
 3fe:	97 1f       	adc	r25, r23
 400:	80 34       	cpi	r24, 0x40	; 64
 402:	91 05       	cpc	r25, r1
 404:	1c f0       	brlt	.+6      	; 0x40c <getBufOffset+0x10>
		return ((index + offset) - RING_BUF_SIZE);
 406:	80 54       	subi	r24, 0x40	; 64
 408:	90 40       	sbci	r25, 0x00	; 0
 40a:	08 95       	ret
	}
	// case for wrapping around bottom end
	if((index + offset) < 0) {
 40c:	99 23       	and	r25, r25
 40e:	14 f4       	brge	.+4      	; 0x414 <getBufOffset+0x18>
		return ((index + offset) + RING_BUF_SIZE);
 410:	80 5c       	subi	r24, 0xC0	; 192
 412:	9f 4f       	sbci	r25, 0xFF	; 255
	}
	// didn't wrap
	return (index + offset);
 414:	08 95       	ret

00000416 <popBuf>:
/* void popBuf()
   Purpose: pops the top item off the buffer
   */
void popBuf() {
	// if the buffer is empty, break
	if ((ringBottom - ringTop) == 0) return;
 416:	80 91 02 01 	lds	r24, 0x0102
 41a:	90 91 03 01 	lds	r25, 0x0103
 41e:	20 91 00 01 	lds	r18, 0x0100
 422:	30 91 01 01 	lds	r19, 0x0101
 426:	28 17       	cp	r18, r24
 428:	39 07       	cpc	r19, r25
 42a:	41 f0       	breq	.+16     	; 0x43c <popBuf+0x26>
	ringTop = getBufOffset(ringTop, 1);
 42c:	61 e0       	ldi	r22, 0x01	; 1
 42e:	70 e0       	ldi	r23, 0x00	; 0
 430:	0e 94 fe 01 	call	0x3fc	; 0x3fc <getBufOffset>
 434:	90 93 03 01 	sts	0x0103, r25
 438:	80 93 02 01 	sts	0x0102, r24
 43c:	08 95       	ret

0000043e <newRingBufItem>:

/* int newRingBufItem()
   Purpose: adds an item to the ring buffer and returns its index
   */
int newRingBufItem() {
	ringBottom = getBufOffset(ringBottom, 1);
 43e:	80 91 00 01 	lds	r24, 0x0100
 442:	90 91 01 01 	lds	r25, 0x0101
 446:	61 e0       	ldi	r22, 0x01	; 1
 448:	70 e0       	ldi	r23, 0x00	; 0
 44a:	0e 94 fe 01 	call	0x3fc	; 0x3fc <getBufOffset>
 44e:	90 93 01 01 	sts	0x0101, r25
 452:	80 93 00 01 	sts	0x0100, r24
	ringBuf[ringBottom].avgRefl = 0;
 456:	fc 01       	movw	r30, r24
 458:	ee 0f       	add	r30, r30
 45a:	ff 1f       	adc	r31, r31
 45c:	ee 0f       	add	r30, r30
 45e:	ff 1f       	adc	r31, r31
 460:	e8 0f       	add	r30, r24
 462:	f9 1f       	adc	r31, r25
 464:	ec 5f       	subi	r30, 0xFC	; 252
 466:	fe 4f       	sbci	r31, 0xFE	; 254
 468:	12 82       	std	Z+2, r1	; 0x02
	ringBuf[ringBottom].reflSamples = 0;
 46a:	14 82       	std	Z+4, r1	; 0x04
 46c:	13 82       	std	Z+3, r1	; 0x03
	ringBuf[ringBottom].metal = 0;
 46e:	11 82       	std	Z+1, r1	; 0x01
	ringBuf[ringBottom].type = 0;
 470:	10 82       	st	Z, r1
	return ringBottom;
}
 472:	08 95       	ret

00000474 <getPatFomHex>:
   Purpose: looks up the appropriate pattern for 
   the seven segment display for a given number.
   If input is not between 0-F, returns blank pattern
   */
char getPatFomHex(char number) {
	switch(number) {
 474:	87 30       	cpi	r24, 0x07	; 7
 476:	71 f1       	breq	.+92     	; 0x4d4 <getPatFomHex+0x60>
 478:	88 30       	cpi	r24, 0x08	; 8
 47a:	70 f4       	brcc	.+28     	; 0x498 <getPatFomHex+0x24>
 47c:	83 30       	cpi	r24, 0x03	; 3
 47e:	11 f1       	breq	.+68     	; 0x4c4 <getPatFomHex+0x50>
 480:	84 30       	cpi	r24, 0x04	; 4
 482:	28 f4       	brcc	.+10     	; 0x48e <getPatFomHex+0x1a>
 484:	81 30       	cpi	r24, 0x01	; 1
 486:	d1 f1       	breq	.+116    	; 0x4fc <getPatFomHex+0x88>
 488:	82 30       	cpi	r24, 0x02	; 2
 48a:	d0 f4       	brcc	.+52     	; 0x4c0 <getPatFomHex+0x4c>
 48c:	17 c0       	rjmp	.+46     	; 0x4bc <getPatFomHex+0x48>
 48e:	85 30       	cpi	r24, 0x05	; 5
 490:	e9 f0       	breq	.+58     	; 0x4cc <getPatFomHex+0x58>
 492:	86 30       	cpi	r24, 0x06	; 6
 494:	e8 f4       	brcc	.+58     	; 0x4d0 <getPatFomHex+0x5c>
 496:	18 c0       	rjmp	.+48     	; 0x4c8 <getPatFomHex+0x54>
 498:	8b 30       	cpi	r24, 0x0B	; 11
 49a:	21 f1       	breq	.+72     	; 0x4e4 <getPatFomHex+0x70>
 49c:	8c 30       	cpi	r24, 0x0C	; 12
 49e:	28 f4       	brcc	.+10     	; 0x4aa <getPatFomHex+0x36>
 4a0:	89 30       	cpi	r24, 0x09	; 9
 4a2:	e1 f0       	breq	.+56     	; 0x4dc <getPatFomHex+0x68>
 4a4:	8a 30       	cpi	r24, 0x0A	; 10
 4a6:	e0 f4       	brcc	.+56     	; 0x4e0 <getPatFomHex+0x6c>
 4a8:	17 c0       	rjmp	.+46     	; 0x4d8 <getPatFomHex+0x64>
 4aa:	8d 30       	cpi	r24, 0x0D	; 13
 4ac:	f9 f0       	breq	.+62     	; 0x4ec <getPatFomHex+0x78>
 4ae:	8d 30       	cpi	r24, 0x0D	; 13
 4b0:	d8 f0       	brcs	.+54     	; 0x4e8 <getPatFomHex+0x74>
 4b2:	8e 30       	cpi	r24, 0x0E	; 14
 4b4:	e9 f0       	breq	.+58     	; 0x4f0 <getPatFomHex+0x7c>
 4b6:	8f 30       	cpi	r24, 0x0F	; 15
 4b8:	f9 f4       	brne	.+62     	; 0x4f8 <getPatFomHex+0x84>
 4ba:	1c c0       	rjmp	.+56     	; 0x4f4 <getPatFomHex+0x80>
		case 0:
			return 0b11111100;
 4bc:	8c ef       	ldi	r24, 0xFC	; 252
 4be:	08 95       	ret
			break;
		case 1:
			return 0b01100000;
			break;
		case 2:
			return 0b11011010;
 4c0:	8a ed       	ldi	r24, 0xDA	; 218
 4c2:	08 95       	ret
			break;
		case 3:
			return 0b11110010;
 4c4:	82 ef       	ldi	r24, 0xF2	; 242
 4c6:	08 95       	ret
			break;
		case 4:
			return 0b01100110;
 4c8:	86 e6       	ldi	r24, 0x66	; 102
 4ca:	08 95       	ret
			break;
		case 5:
			return 0b10110110;
 4cc:	86 eb       	ldi	r24, 0xB6	; 182
 4ce:	08 95       	ret
			break;
		case 6:
			return 0b10111110;
 4d0:	8e eb       	ldi	r24, 0xBE	; 190
 4d2:	08 95       	ret
			break;
		case 7:
			return 0b11100000;
 4d4:	80 ee       	ldi	r24, 0xE0	; 224
 4d6:	08 95       	ret
			break;
		case 8:
			return 0b11111110;
 4d8:	8e ef       	ldi	r24, 0xFE	; 254
 4da:	08 95       	ret
			break;
		case 9:
			return 0b11100110;
 4dc:	86 ee       	ldi	r24, 0xE6	; 230
 4de:	08 95       	ret
			break;
		case 10:
			return 0b11101110;
 4e0:	8e ee       	ldi	r24, 0xEE	; 238
 4e2:	08 95       	ret
			break;
		case 11:
			return 0b00111110;
 4e4:	8e e3       	ldi	r24, 0x3E	; 62
 4e6:	08 95       	ret
			break;
		case 12:
			return 0b10011100;
 4e8:	8c e9       	ldi	r24, 0x9C	; 156
 4ea:	08 95       	ret
			break;
		case 13:
			return 0b01111010;
 4ec:	8a e7       	ldi	r24, 0x7A	; 122
 4ee:	08 95       	ret
			break;
		case 14:
			return 0b10011110;
 4f0:	8e e9       	ldi	r24, 0x9E	; 158
 4f2:	08 95       	ret
			break;
		case 15:
			return 0b10001110;
 4f4:	8e e8       	ldi	r24, 0x8E	; 142
 4f6:	08 95       	ret
		default:
			break;			
	}
	return 0x00;
 4f8:	80 e0       	ldi	r24, 0x00	; 0
 4fa:	08 95       	ret
	switch(number) {
		case 0:
			return 0b11111100;
			break;
		case 1:
			return 0b01100000;
 4fc:	80 e6       	ldi	r24, 0x60	; 96
			return 0b10001110;
		default:
			break;			
	}
	return 0x00;
}
 4fe:	08 95       	ret

00000500 <writePattern>:
/* void writePattern(char pattern)
   Purpose: Bit-bangs out an integer over
   the serial interface to the display
   */
void writePattern(char pattern) {
	for (int i=0; i<8; i++) {
 500:	20 e0       	ldi	r18, 0x00	; 0
 502:	30 e0       	ldi	r19, 0x00	; 0
		// assert the data
		char databit = 0x01 & (pattern >> i);
 504:	90 e0       	ldi	r25, 0x00	; 0
		PORTA = (PORTA & 0b10111111) | (databit << 6);
 506:	62 b1       	in	r22, 0x02	; 2
   the serial interface to the display
   */
void writePattern(char pattern) {
	for (int i=0; i<8; i++) {
		// assert the data
		char databit = 0x01 & (pattern >> i);
 508:	ac 01       	movw	r20, r24
 50a:	02 2e       	mov	r0, r18
 50c:	02 c0       	rjmp	.+4      	; 0x512 <writePattern+0x12>
 50e:	55 95       	asr	r21
 510:	47 95       	ror	r20
 512:	0a 94       	dec	r0
 514:	e2 f7       	brpl	.-8      	; 0x50e <writePattern+0xe>
 516:	41 70       	andi	r20, 0x01	; 1
		PORTA = (PORTA & 0b10111111) | (databit << 6);
 518:	42 95       	swap	r20
 51a:	44 0f       	add	r20, r20
 51c:	44 0f       	add	r20, r20
 51e:	40 7c       	andi	r20, 0xC0	; 192
 520:	56 2f       	mov	r21, r22
 522:	5f 7b       	andi	r21, 0xBF	; 191
 524:	45 2b       	or	r20, r21
 526:	42 b9       	out	0x02, r20	; 2
		// rising edge
		PORTA = (PORTA & 0b01111111) | 0b10000000;
 528:	17 9a       	sbi	0x02, 7	; 2
		// falling edge
		PORTA = (PORTA & 0b01111111);
 52a:	17 98       	cbi	0x02, 7	; 2
/* void writePattern(char pattern)
   Purpose: Bit-bangs out an integer over
   the serial interface to the display
   */
void writePattern(char pattern) {
	for (int i=0; i<8; i++) {
 52c:	2f 5f       	subi	r18, 0xFF	; 255
 52e:	3f 4f       	sbci	r19, 0xFF	; 255
 530:	28 30       	cpi	r18, 0x08	; 8
 532:	31 05       	cpc	r19, r1
 534:	41 f7       	brne	.-48     	; 0x506 <writePattern+0x6>
		// rising edge
		PORTA = (PORTA & 0b01111111) | 0b10000000;
		// falling edge
		PORTA = (PORTA & 0b01111111);
	}
}
 536:	08 95       	ret

00000538 <writeDecInt>:

/* void writeDecInt(int number)
   Purpose: fills the seven segment display with
   an integer number, formatted as decimal.
   */
void writeDecInt(int number) {
 538:	ef 92       	push	r14
 53a:	ff 92       	push	r15
 53c:	0f 93       	push	r16
 53e:	1f 93       	push	r17
 540:	cf 93       	push	r28
 542:	df 93       	push	r29
 544:	c3 e0       	ldi	r28, 0x03	; 3
 546:	d0 e0       	ldi	r29, 0x00	; 0
	for (int i=0; i < DISPLAY_DIGITS; i++) {
		writePattern(getPatFomHex(number % 10));
 548:	0f 2e       	mov	r0, r31
 54a:	fa e0       	ldi	r31, 0x0A	; 10
 54c:	ef 2e       	mov	r14, r31
 54e:	ff 24       	eor	r15, r15
 550:	f0 2d       	mov	r31, r0
 552:	b7 01       	movw	r22, r14
 554:	0e 94 10 03 	call	0x620	; 0x620 <__divmodhi4>
 558:	16 2f       	mov	r17, r22
 55a:	07 2f       	mov	r16, r23
 55c:	0e 94 3a 02 	call	0x474	; 0x474 <getPatFomHex>
 560:	0e 94 80 02 	call	0x500	; 0x500 <writePattern>
		number = number / 10;
 564:	81 2f       	mov	r24, r17
 566:	90 2f       	mov	r25, r16
 568:	21 97       	sbiw	r28, 0x01	; 1
/* void writeDecInt(int number)
   Purpose: fills the seven segment display with
   an integer number, formatted as decimal.
   */
void writeDecInt(int number) {
	for (int i=0; i < DISPLAY_DIGITS; i++) {
 56a:	99 f7       	brne	.-26     	; 0x552 <writeDecInt+0x1a>
		writePattern(getPatFomHex(number % 10));
		number = number / 10;
	}
}
 56c:	df 91       	pop	r29
 56e:	cf 91       	pop	r28
 570:	1f 91       	pop	r17
 572:	0f 91       	pop	r16
 574:	ff 90       	pop	r15
 576:	ef 90       	pop	r14
 578:	08 95       	ret

0000057a <writeHexInt>:

/* void writeHexInt(int number)
   Purpose: fills the seven segment display with
   an integer number, formatted as hexadecimal.
   */
void writeHexInt(int number) {
 57a:	ef 92       	push	r14
 57c:	ff 92       	push	r15
 57e:	0f 93       	push	r16
 580:	1f 93       	push	r17
 582:	cf 93       	push	r28
 584:	df 93       	push	r29
 586:	ec 01       	movw	r28, r24
 588:	03 e0       	ldi	r16, 0x03	; 3
 58a:	10 e0       	ldi	r17, 0x00	; 0
	for (int i=0; i < DISPLAY_DIGITS; i++) {
		writePattern(getPatFomHex(number % 16));
 58c:	ee 24       	eor	r14, r14
 58e:	ff 24       	eor	r15, r15
 590:	68 94       	set
 592:	e4 f8       	bld	r14, 4
 594:	ce 01       	movw	r24, r28
 596:	b7 01       	movw	r22, r14
 598:	0e 94 10 03 	call	0x620	; 0x620 <__divmodhi4>
 59c:	0e 94 3a 02 	call	0x474	; 0x474 <getPatFomHex>
 5a0:	0e 94 80 02 	call	0x500	; 0x500 <writePattern>
		number = number / 16;
 5a4:	ce 01       	movw	r24, r28
 5a6:	dd 23       	and	r29, r29
 5a8:	0c f4       	brge	.+2      	; 0x5ac <writeHexInt+0x32>
 5aa:	0f 96       	adiw	r24, 0x0f	; 15
 5ac:	ec 01       	movw	r28, r24
 5ae:	d5 95       	asr	r29
 5b0:	c7 95       	ror	r28
 5b2:	d5 95       	asr	r29
 5b4:	c7 95       	ror	r28
 5b6:	d5 95       	asr	r29
 5b8:	c7 95       	ror	r28
 5ba:	d5 95       	asr	r29
 5bc:	c7 95       	ror	r28
 5be:	01 50       	subi	r16, 0x01	; 1
 5c0:	10 40       	sbci	r17, 0x00	; 0
/* void writeHexInt(int number)
   Purpose: fills the seven segment display with
   an integer number, formatted as hexadecimal.
   */
void writeHexInt(int number) {
	for (int i=0; i < DISPLAY_DIGITS; i++) {
 5c2:	41 f7       	brne	.-48     	; 0x594 <writeHexInt+0x1a>
		writePattern(getPatFomHex(number % 16));
		number = number / 16;
	}
 5c4:	df 91       	pop	r29
 5c6:	cf 91       	pop	r28
 5c8:	1f 91       	pop	r17
 5ca:	0f 91       	pop	r16
 5cc:	ff 90       	pop	r15
 5ce:	ef 90       	pop	r14
 5d0:	08 95       	ret

000005d2 <initializeTimer>:
#include <avr/io.h>

void initializeTimer() {
	// bitwise OR to set timer/counter control register
	// to cpu clock, pure timer.
	TCCR1B|=_BV(CS10);
 5d2:	e1 e8       	ldi	r30, 0x81	; 129
 5d4:	f0 e0       	ldi	r31, 0x00	; 0
 5d6:	80 81       	ld	r24, Z
 5d8:	81 60       	ori	r24, 0x01	; 1
 5da:	80 83       	st	Z, r24
} 
 5dc:	08 95       	ret

000005de <delaynms>:

void delaynms(int n)   // delay milliseconds
{
 5de:	9c 01       	movw	r18, r24
	// Set waveform generator bits to 0100 (count up and
	// reset on hit)
	TCCR1B |=_BV(WGM12);
 5e0:	e1 e8       	ldi	r30, 0x81	; 129
 5e2:	f0 e0       	ldi	r31, 0x00	; 0
 5e4:	80 81       	ld	r24, Z
 5e6:	88 60       	ori	r24, 0x08	; 8
 5e8:	80 83       	st	Z, r24
	
	// Set the clock prescaler to 1/64th
	TCCR1B |= 0b00000011;
 5ea:	80 81       	ld	r24, Z
 5ec:	83 60       	ori	r24, 0x03	; 3
 5ee:	80 83       	st	Z, r24

	for(int i=0; i<n; i++) {
 5f0:	12 16       	cp	r1, r18
 5f2:	13 06       	cpc	r1, r19
 5f4:	a4 f4       	brge	.+40     	; 0x61e <delaynms+0x40>
 5f6:	80 e0       	ldi	r24, 0x00	; 0
 5f8:	90 e0       	ldi	r25, 0x00	; 0
		// set the output compare register
		// to 1 ms
		OCR1A = 125;
 5fa:	e8 e8       	ldi	r30, 0x88	; 136
 5fc:	f0 e0       	ldi	r31, 0x00	; 0
 5fe:	4d e7       	ldi	r20, 0x7D	; 125
 600:	50 e0       	ldi	r21, 0x00	; 0

		// set initial value to zero
		TCNT1 = 0;
 602:	a4 e8       	ldi	r26, 0x84	; 132
 604:	b0 e0       	ldi	r27, 0x00	; 0
	TCCR1B |= 0b00000011;

	for(int i=0; i<n; i++) {
		// set the output compare register
		// to 1 ms
		OCR1A = 125;
 606:	51 83       	std	Z+1, r21	; 0x01
 608:	40 83       	st	Z, r20

		// set initial value to zero
		TCNT1 = 0;
 60a:	11 96       	adiw	r26, 0x01	; 1
 60c:	1c 92       	st	X, r1
 60e:	1e 92       	st	-X, r1

		// enable output compare interrupt enable
		//TIMSK1|=0b00000010;

		// begin timer
		TIFR1|=_BV(OCF1A);
 610:	b1 9a       	sbi	0x16, 1	; 22

		// poll until we reach our number of milliseconds
		while(1) {
			if((TIFR1 & 0x02) == 0x02) break;
 612:	b1 9b       	sbis	0x16, 1	; 22
 614:	fe cf       	rjmp	.-4      	; 0x612 <delaynms+0x34>
	TCCR1B |=_BV(WGM12);
	
	// Set the clock prescaler to 1/64th
	TCCR1B |= 0b00000011;

	for(int i=0; i<n; i++) {
 616:	01 96       	adiw	r24, 0x01	; 1
 618:	82 17       	cp	r24, r18
 61a:	93 07       	cpc	r25, r19
 61c:	a1 f7       	brne	.-24     	; 0x606 <delaynms+0x28>
 61e:	08 95       	ret

00000620 <__divmodhi4>:
 620:	97 fb       	bst	r25, 7
 622:	09 2e       	mov	r0, r25
 624:	07 26       	eor	r0, r23
 626:	0a d0       	rcall	.+20     	; 0x63c <__divmodhi4_neg1>
 628:	77 fd       	sbrc	r23, 7
 62a:	04 d0       	rcall	.+8      	; 0x634 <__divmodhi4_neg2>
 62c:	0c d0       	rcall	.+24     	; 0x646 <__udivmodhi4>
 62e:	06 d0       	rcall	.+12     	; 0x63c <__divmodhi4_neg1>
 630:	00 20       	and	r0, r0
 632:	1a f4       	brpl	.+6      	; 0x63a <__divmodhi4_exit>

00000634 <__divmodhi4_neg2>:
 634:	70 95       	com	r23
 636:	61 95       	neg	r22
 638:	7f 4f       	sbci	r23, 0xFF	; 255

0000063a <__divmodhi4_exit>:
 63a:	08 95       	ret

0000063c <__divmodhi4_neg1>:
 63c:	f6 f7       	brtc	.-4      	; 0x63a <__divmodhi4_exit>
 63e:	90 95       	com	r25
 640:	81 95       	neg	r24
 642:	9f 4f       	sbci	r25, 0xFF	; 255
 644:	08 95       	ret

00000646 <__udivmodhi4>:
 646:	aa 1b       	sub	r26, r26
 648:	bb 1b       	sub	r27, r27
 64a:	51 e1       	ldi	r21, 0x11	; 17
 64c:	07 c0       	rjmp	.+14     	; 0x65c <__udivmodhi4_ep>

0000064e <__udivmodhi4_loop>:
 64e:	aa 1f       	adc	r26, r26
 650:	bb 1f       	adc	r27, r27
 652:	a6 17       	cp	r26, r22
 654:	b7 07       	cpc	r27, r23
 656:	10 f0       	brcs	.+4      	; 0x65c <__udivmodhi4_ep>
 658:	a6 1b       	sub	r26, r22
 65a:	b7 0b       	sbc	r27, r23

0000065c <__udivmodhi4_ep>:
 65c:	88 1f       	adc	r24, r24
 65e:	99 1f       	adc	r25, r25
 660:	5a 95       	dec	r21
 662:	a9 f7       	brne	.-22     	; 0x64e <__udivmodhi4_loop>
 664:	80 95       	com	r24
 666:	90 95       	com	r25
 668:	bc 01       	movw	r22, r24
 66a:	cd 01       	movw	r24, r26
 66c:	08 95       	ret

0000066e <_exit>:
 66e:	f8 94       	cli

00000670 <__stop_program>:
 670:	ff cf       	rjmp	.-2      	; 0x670 <__stop_program>
