
ConveyerBelt.elf:     file format elf32-avr

Sections:
Idx Name          Size      VMA       LMA       File off  Algn
  0 .data         00000004  00800100  0000127c  00001310  2**0
                  CONTENTS, ALLOC, LOAD, DATA
  1 .text         0000127c  00000000  00000000  00000094  2**1
                  CONTENTS, ALLOC, LOAD, READONLY, CODE
  2 .bss          000000b3  00800104  00800104  00001314  2**0
                  ALLOC
  3 .stab         000006cc  00000000  00000000  00001314  2**2
                  CONTENTS, READONLY, DEBUGGING
  4 .stabstr      00000085  00000000  00000000  000019e0  2**0
                  CONTENTS, READONLY, DEBUGGING
  5 .debug_aranges 000001c0  00000000  00000000  00001a68  2**3
                  CONTENTS, READONLY, DEBUGGING
  6 .debug_info   00001914  00000000  00000000  00001c28  2**0
                  CONTENTS, READONLY, DEBUGGING
  7 .debug_abbrev 000007da  00000000  00000000  0000353c  2**0
                  CONTENTS, READONLY, DEBUGGING
  8 .debug_line   00000c9f  00000000  00000000  00003d16  2**0
                  CONTENTS, READONLY, DEBUGGING
  9 .debug_frame  0000074c  00000000  00000000  000049b8  2**2
                  CONTENTS, READONLY, DEBUGGING
 10 .debug_str    00000601  00000000  00000000  00005104  2**0
                  CONTENTS, READONLY, DEBUGGING
 11 .debug_loc    0000107f  00000000  00000000  00005705  2**0
                  CONTENTS, READONLY, DEBUGGING

Disassembly of section .text:

00000000 <__vectors>:
       0:	0c 94 4c 00 	jmp	0x98	; 0x98 <__ctors_end>
       4:	0c 94 2f 03 	jmp	0x65e	; 0x65e <__vector_1>
       8:	0c 94 5d 03 	jmp	0x6ba	; 0x6ba <__vector_2>
       c:	0c 94 8b 03 	jmp	0x716	; 0x716 <__vector_3>
      10:	0c 94 b3 03 	jmp	0x766	; 0x766 <__vector_4>
      14:	0c 94 e1 03 	jmp	0x7c2	; 0x7c2 <__vector_5>
      18:	0c 94 10 04 	jmp	0x820	; 0x820 <__vector_6>
      1c:	0c 94 41 04 	jmp	0x882	; 0x882 <__vector_7>
      20:	0c 94 6c 00 	jmp	0xd8	; 0xd8 <__bad_interrupt>
      24:	0c 94 6c 00 	jmp	0xd8	; 0xd8 <__bad_interrupt>
      28:	0c 94 6c 00 	jmp	0xd8	; 0xd8 <__bad_interrupt>
      2c:	0c 94 6c 00 	jmp	0xd8	; 0xd8 <__bad_interrupt>
      30:	0c 94 6c 00 	jmp	0xd8	; 0xd8 <__bad_interrupt>
      34:	0c 94 6c 00 	jmp	0xd8	; 0xd8 <__bad_interrupt>
      38:	0c 94 6c 00 	jmp	0xd8	; 0xd8 <__bad_interrupt>
      3c:	0c 94 6c 00 	jmp	0xd8	; 0xd8 <__bad_interrupt>
      40:	0c 94 6c 00 	jmp	0xd8	; 0xd8 <__bad_interrupt>
      44:	0c 94 6c 00 	jmp	0xd8	; 0xd8 <__bad_interrupt>
      48:	0c 94 6c 00 	jmp	0xd8	; 0xd8 <__bad_interrupt>
      4c:	0c 94 6c 00 	jmp	0xd8	; 0xd8 <__bad_interrupt>
      50:	0c 94 6c 00 	jmp	0xd8	; 0xd8 <__bad_interrupt>
      54:	0c 94 6c 00 	jmp	0xd8	; 0xd8 <__bad_interrupt>
      58:	0c 94 6c 00 	jmp	0xd8	; 0xd8 <__bad_interrupt>
      5c:	0c 94 6c 00 	jmp	0xd8	; 0xd8 <__bad_interrupt>
      60:	0c 94 6c 00 	jmp	0xd8	; 0xd8 <__bad_interrupt>
      64:	0c 94 6c 00 	jmp	0xd8	; 0xd8 <__bad_interrupt>
      68:	0c 94 6c 00 	jmp	0xd8	; 0xd8 <__bad_interrupt>
      6c:	0c 94 6c 00 	jmp	0xd8	; 0xd8 <__bad_interrupt>
      70:	0c 94 6c 00 	jmp	0xd8	; 0xd8 <__bad_interrupt>
      74:	0c 94 df 00 	jmp	0x1be	; 0x1be <__vector_29>
      78:	0c 94 6c 00 	jmp	0xd8	; 0xd8 <__bad_interrupt>
      7c:	0c 94 6c 00 	jmp	0xd8	; 0xd8 <__bad_interrupt>
      80:	0c 94 6c 00 	jmp	0xd8	; 0xd8 <__bad_interrupt>
      84:	0c 94 6c 00 	jmp	0xd8	; 0xd8 <__bad_interrupt>
      88:	0c 94 6c 00 	jmp	0xd8	; 0xd8 <__bad_interrupt>
      8c:	0c 94 6c 00 	jmp	0xd8	; 0xd8 <__bad_interrupt>
      90:	0c 94 6c 00 	jmp	0xd8	; 0xd8 <__bad_interrupt>
      94:	0c 94 6c 00 	jmp	0xd8	; 0xd8 <__bad_interrupt>

00000098 <__ctors_end>:
      98:	11 24       	eor	r1, r1
      9a:	1f be       	out	0x3f, r1	; 63
      9c:	cf ef       	ldi	r28, 0xFF	; 255
      9e:	d0 e2       	ldi	r29, 0x20	; 32
      a0:	de bf       	out	0x3e, r29	; 62
      a2:	cd bf       	out	0x3d, r28	; 61

000000a4 <__do_copy_data>:
      a4:	11 e0       	ldi	r17, 0x01	; 1
      a6:	a0 e0       	ldi	r26, 0x00	; 0
      a8:	b1 e0       	ldi	r27, 0x01	; 1
      aa:	ec e7       	ldi	r30, 0x7C	; 124
      ac:	f2 e1       	ldi	r31, 0x12	; 18
      ae:	00 e0       	ldi	r16, 0x00	; 0
      b0:	0b bf       	out	0x3b, r16	; 59
      b2:	02 c0       	rjmp	.+4      	; 0xb8 <__do_copy_data+0x14>
      b4:	07 90       	elpm	r0, Z+
      b6:	0d 92       	st	X+, r0
      b8:	a4 30       	cpi	r26, 0x04	; 4
      ba:	b1 07       	cpc	r27, r17
      bc:	d9 f7       	brne	.-10     	; 0xb4 <__do_copy_data+0x10>
      be:	1b be       	out	0x3b, r1	; 59

000000c0 <__do_clear_bss>:
      c0:	11 e0       	ldi	r17, 0x01	; 1
      c2:	a4 e0       	ldi	r26, 0x04	; 4
      c4:	b1 e0       	ldi	r27, 0x01	; 1
      c6:	01 c0       	rjmp	.+2      	; 0xca <.do_clear_bss_start>

000000c8 <.do_clear_bss_loop>:
      c8:	1d 92       	st	X+, r1

000000ca <.do_clear_bss_start>:
      ca:	a7 3b       	cpi	r26, 0xB7	; 183
      cc:	b1 07       	cpc	r27, r17
      ce:	e1 f7       	brne	.-8      	; 0xc8 <.do_clear_bss_loop>
      d0:	0e 94 6f 04 	call	0x8de	; 0x8de <main>
      d4:	0c 94 3c 09 	jmp	0x1278	; 0x1278 <_exit>

000000d8 <__bad_interrupt>:
      d8:	0c 94 00 00 	jmp	0	; 0x0 <__vectors>

000000dc <setupADC>:

char ADC_is_running;
char Ignore_ADC_samples;

void setupADC() {
	DDRF = 0x00;
      dc:	10 ba       	out	0x10, r1	; 16
	// ADC setup
	ADCSRA |= _BV(ADEN);
      de:	ea e7       	ldi	r30, 0x7A	; 122
      e0:	f0 e0       	ldi	r31, 0x00	; 0
      e2:	80 81       	ld	r24, Z
      e4:	80 68       	ori	r24, 0x80	; 128
      e6:	80 83       	st	Z, r24
	ADCSRA |= _BV(ADIE);
      e8:	80 81       	ld	r24, Z
      ea:	88 60       	ori	r24, 0x08	; 8
      ec:	80 83       	st	Z, r24
	ADCSRA |= _BV(ADPS0) | _BV(ADPS1) | _BV(ADPS2);
      ee:	80 81       	ld	r24, Z
      f0:	87 60       	ori	r24, 0x07	; 7
      f2:	80 83       	st	Z, r24
	ADMUX |= _BV(REFS0) | 0b01;
      f4:	ec e7       	ldi	r30, 0x7C	; 124
      f6:	f0 e0       	ldi	r31, 0x00	; 0
      f8:	80 81       	ld	r24, Z
      fa:	81 64       	ori	r24, 0x41	; 65
      fc:	80 83       	st	Z, r24
	ADC_is_running = 0;
      fe:	10 92 05 01 	sts	0x0105, r1
	Ignore_ADC_samples = 0;
     102:	10 92 04 01 	sts	0x0104, r1
	sei();
     106:	78 94       	sei
}
     108:	08 95       	ret

0000010a <startADC>:

void startADC() {
	ADC_is_running = 1;
     10a:	81 e0       	ldi	r24, 0x01	; 1
     10c:	80 93 05 01 	sts	0x0105, r24
	ADCSRA |= _BV(ADSC);
     110:	ea e7       	ldi	r30, 0x7A	; 122
     112:	f0 e0       	ldi	r31, 0x00	; 0
     114:	80 81       	ld	r24, Z
     116:	80 64       	ori	r24, 0x40	; 64
     118:	80 83       	st	Z, r24
	sei();
     11a:	78 94       	sei
}
     11c:	08 95       	ret

0000011e <stopADC>:

void stopADC() {
	ADC_is_running = 0;
     11e:	10 92 05 01 	sts	0x0105, r1
	ADCSRA &= ~_BV(ADSC);
     122:	ea e7       	ldi	r30, 0x7A	; 122
     124:	f0 e0       	ldi	r31, 0x00	; 0
     126:	80 81       	ld	r24, Z
     128:	8f 7b       	andi	r24, 0xBF	; 191
     12a:	80 83       	st	Z, r24
}
     12c:	08 95       	ret

0000012e <updateMinimum>:

void updateMinimum(int refl) {
     12e:	9c 01       	movw	r18, r24
	// are we to ignore samples?
	if(Ignore_ADC_samples == 1) return;
     130:	80 91 04 01 	lds	r24, 0x0104
     134:	81 30       	cpi	r24, 0x01	; 1
     136:	09 f4       	brne	.+2      	; 0x13a <updateMinimum+0xc>
     138:	41 c0       	rjmp	.+130    	; 0x1bc <updateMinimum+0x8e>
	// if we have too many samples, toss 'em
	if(ringBuf[currentRefl].reflSamples >= REFL_MAX_SAMPLES) return;
     13a:	80 91 63 01 	lds	r24, 0x0163
     13e:	90 91 64 01 	lds	r25, 0x0164
     142:	fc 01       	movw	r30, r24
     144:	ee 0f       	add	r30, r30
     146:	ff 1f       	adc	r31, r31
     148:	e8 0f       	add	r30, r24
     14a:	f9 1f       	adc	r31, r25
     14c:	ee 0f       	add	r30, r30
     14e:	ff 1f       	adc	r31, r31
     150:	e9 59       	subi	r30, 0x99	; 153
     152:	fe 4f       	sbci	r31, 0xFE	; 254
     154:	44 81       	ldd	r20, Z+4	; 0x04
     156:	55 81       	ldd	r21, Z+5	; 0x05
     158:	48 3c       	cpi	r20, 0xC8	; 200
     15a:	51 05       	cpc	r21, r1
     15c:	7c f5       	brge	.+94     	; 0x1bc <updateMinimum+0x8e>
	// throw out spurious values
	if((refl < REFL_MIN) || (refl > REFL_MAX)) return;
     15e:	a9 01       	movw	r20, r18
     160:	42 53       	subi	r20, 0x32	; 50
     162:	50 40       	sbci	r21, 0x00	; 0
     164:	63 e0       	ldi	r22, 0x03	; 3
     166:	4f 3c       	cpi	r20, 0xCF	; 207
     168:	56 07       	cpc	r21, r22
     16a:	40 f5       	brcc	.+80     	; 0x1bc <updateMinimum+0x8e>
	/*long int meanprod = (long)ringBuf[currentRefl].avgRefl * (long)ringBuf[currentRefl].reflSamples;
	meanprod += refl;
	ringBuf[currentRefl].reflSamples++;
	ringBuf[currentRefl].avgRefl = meanprod / ringBuf[currentRefl].reflSamples;
	delaynms(1);*/
	if(ringBuf[currentRefl].minRefl > refl) ringBuf[currentRefl].minRefl = refl;
     16c:	fc 01       	movw	r30, r24
     16e:	ee 0f       	add	r30, r30
     170:	ff 1f       	adc	r31, r31
     172:	e8 0f       	add	r30, r24
     174:	f9 1f       	adc	r31, r25
     176:	ee 0f       	add	r30, r30
     178:	ff 1f       	adc	r31, r31
     17a:	e9 59       	subi	r30, 0x99	; 153
     17c:	fe 4f       	sbci	r31, 0xFE	; 254
     17e:	42 81       	ldd	r20, Z+2	; 0x02
     180:	53 81       	ldd	r21, Z+3	; 0x03
     182:	24 17       	cp	r18, r20
     184:	35 07       	cpc	r19, r21
     186:	5c f4       	brge	.+22     	; 0x19e <updateMinimum+0x70>
     188:	fc 01       	movw	r30, r24
     18a:	ee 0f       	add	r30, r30
     18c:	ff 1f       	adc	r31, r31
     18e:	e8 0f       	add	r30, r24
     190:	f9 1f       	adc	r31, r25
     192:	ee 0f       	add	r30, r30
     194:	ff 1f       	adc	r31, r31
     196:	e9 59       	subi	r30, 0x99	; 153
     198:	fe 4f       	sbci	r31, 0xFE	; 254
     19a:	33 83       	std	Z+3, r19	; 0x03
     19c:	22 83       	std	Z+2, r18	; 0x02
	ringBuf[currentRefl].reflSamples++;
     19e:	fc 01       	movw	r30, r24
     1a0:	ee 0f       	add	r30, r30
     1a2:	ff 1f       	adc	r31, r31
     1a4:	8e 0f       	add	r24, r30
     1a6:	9f 1f       	adc	r25, r31
     1a8:	fc 01       	movw	r30, r24
     1aa:	ee 0f       	add	r30, r30
     1ac:	ff 1f       	adc	r31, r31
     1ae:	e9 59       	subi	r30, 0x99	; 153
     1b0:	fe 4f       	sbci	r31, 0xFE	; 254
     1b2:	84 81       	ldd	r24, Z+4	; 0x04
     1b4:	95 81       	ldd	r25, Z+5	; 0x05
     1b6:	01 96       	adiw	r24, 0x01	; 1
     1b8:	95 83       	std	Z+5, r25	; 0x05
     1ba:	84 83       	std	Z+4, r24	; 0x04
     1bc:	08 95       	ret

000001be <__vector_29>:
	return;
}

ISR(ADC_vect) {
     1be:	1f 92       	push	r1
     1c0:	0f 92       	push	r0
     1c2:	0f b6       	in	r0, 0x3f	; 63
     1c4:	0f 92       	push	r0
     1c6:	0b b6       	in	r0, 0x3b	; 59
     1c8:	0f 92       	push	r0
     1ca:	11 24       	eor	r1, r1
     1cc:	2f 93       	push	r18
     1ce:	3f 93       	push	r19
     1d0:	4f 93       	push	r20
     1d2:	5f 93       	push	r21
     1d4:	6f 93       	push	r22
     1d6:	7f 93       	push	r23
     1d8:	8f 93       	push	r24
     1da:	9f 93       	push	r25
     1dc:	af 93       	push	r26
     1de:	bf 93       	push	r27
     1e0:	ef 93       	push	r30
     1e2:	ff 93       	push	r31
	updateMinimum(ADC);
     1e4:	80 91 78 00 	lds	r24, 0x0078
     1e8:	90 91 79 00 	lds	r25, 0x0079
     1ec:	0e 94 97 00 	call	0x12e	; 0x12e <updateMinimum>
	ADCSRA |= _BV(ADSC);
     1f0:	ea e7       	ldi	r30, 0x7A	; 122
     1f2:	f0 e0       	ldi	r31, 0x00	; 0
     1f4:	80 81       	ld	r24, Z
     1f6:	80 64       	ori	r24, 0x40	; 64
     1f8:	80 83       	st	Z, r24
     1fa:	ff 91       	pop	r31
     1fc:	ef 91       	pop	r30
     1fe:	bf 91       	pop	r27
     200:	af 91       	pop	r26
     202:	9f 91       	pop	r25
     204:	8f 91       	pop	r24
     206:	7f 91       	pop	r23
     208:	6f 91       	pop	r22
     20a:	5f 91       	pop	r21
     20c:	4f 91       	pop	r20
     20e:	3f 91       	pop	r19
     210:	2f 91       	pop	r18
     212:	0f 90       	pop	r0
     214:	0b be       	out	0x3b, r0	; 59
     216:	0f 90       	pop	r0
     218:	0f be       	out	0x3f, r0	; 63
     21a:	0f 90       	pop	r0
     21c:	1f 90       	pop	r1
     21e:	18 95       	reti

00000220 <setupMotor>:
motorStates motorState;
motorStates pausedMotorState;

void setupMotor() {
	// enable port for output
	DDRC |= ~(MOTOR_BITMASK);
     220:	87 b1       	in	r24, 0x07	; 7
     222:	8f 60       	ori	r24, 0x0F	; 15
     224:	87 b9       	out	0x07, r24	; 7
	
	// put the brakes on
	PORTC = (PORTC & MOTOR_BITMASK) | MOTOR_BRAKE_PATTERN;
     226:	88 b1       	in	r24, 0x08	; 8
     228:	80 7f       	andi	r24, 0xF0	; 240
     22a:	88 b9       	out	0x08, r24	; 8
	
	// start the PWM output
	DDRB = 0xFF;
     22c:	8f ef       	ldi	r24, 0xFF	; 255
     22e:	84 b9       	out	0x04, r24	; 4
	
	// enable PWM fast mode
	TCCR0A = _BV(WGM00) | _BV(WGM01) | _BV(COM0A1) | _BV(COM0B1);
     230:	83 ea       	ldi	r24, 0xA3	; 163
     232:	84 bd       	out	0x24, r24	; 36
	
	// disable prescaler
	TCCR0B = _BV(CS00);
     234:	81 e0       	ldi	r24, 0x01	; 1
     236:	85 bd       	out	0x25, r24	; 37
	
	// set duty cycle
	OCR0A = MOTOR_DEF_SPEED;
     238:	8f eb       	ldi	r24, 0xBF	; 191
     23a:	87 bd       	out	0x27, r24	; 39
	motorWaitForStepper = 0;
     23c:	10 92 07 01 	sts	0x0107, r1
	pausedForUndef = 0;
     240:	10 92 08 01 	sts	0x0108, r1
	motorState = BRAKE;
     244:	10 92 09 01 	sts	0x0109, r1
	pausedMotorState = BRAKE;
     248:	10 92 06 01 	sts	0x0106, r1
}
     24c:	08 95       	ret

0000024e <setMotorSpeed>:

void setMotorSpeed(char speed) {
	OCR0A = speed;
     24e:	87 bd       	out	0x27, r24	; 39
}
     250:	08 95       	ret

00000252 <setMotorFwd>:

void setMotorFwd() {
	PORTC = (PORTC & MOTOR_BITMASK) | MOTOR_FWD_PATTERN;
     252:	88 b1       	in	r24, 0x08	; 8
     254:	80 7f       	andi	r24, 0xF0	; 240
     256:	88 60       	ori	r24, 0x08	; 8
     258:	88 b9       	out	0x08, r24	; 8
	motorState = FORWARD;
     25a:	81 e0       	ldi	r24, 0x01	; 1
     25c:	80 93 09 01 	sts	0x0109, r24
}
     260:	08 95       	ret

00000262 <setMotorRev>:

void setMotorRev() {
	PORTC = (PORTC & MOTOR_BITMASK) | MOTOR_REV_PATTERN;
     262:	88 b1       	in	r24, 0x08	; 8
     264:	80 7f       	andi	r24, 0xF0	; 240
     266:	81 60       	ori	r24, 0x01	; 1
     268:	88 b9       	out	0x08, r24	; 8
	motorState = REVERSE;
     26a:	82 e0       	ldi	r24, 0x02	; 2
     26c:	80 93 09 01 	sts	0x0109, r24
}
     270:	08 95       	ret

00000272 <setMotorBrake>:

void setMotorBrake() {
	PORTC = (PORTC & MOTOR_BITMASK) | MOTOR_BRAKE_PATTERN;
     272:	88 b1       	in	r24, 0x08	; 8
     274:	80 7f       	andi	r24, 0xF0	; 240
     276:	88 b9       	out	0x08, r24	; 8
	motorState = BRAKE;
     278:	10 92 09 01 	sts	0x0109, r1
}
     27c:	08 95       	ret

0000027e <setMotorCoast>:

void setMotorCoast() {
	PORTC = (PORTC & MOTOR_BITMASK) | MOTOR_COAST_PATTERN;
     27e:	88 b1       	in	r24, 0x08	; 8
     280:	80 7f       	andi	r24, 0xF0	; 240
     282:	86 60       	ori	r24, 0x06	; 6
     284:	88 b9       	out	0x08, r24	; 8
	motorState = COAST;
     286:	83 e0       	ldi	r24, 0x03	; 3
     288:	80 93 09 01 	sts	0x0109, r24
     28c:	08 95       	ret

0000028e <pausedHandler>:
		while(1);
	}
}

void pausedHandler() {
	if(inPause == 1) {
     28e:	80 91 60 01 	lds	r24, 0x0160
     292:	81 30       	cpi	r24, 0x01	; 1
     294:	09 f5       	brne	.+66     	; 0x2d8 <pausedHandler+0x4a>
		inPause = 0;
     296:	10 92 60 01 	sts	0x0160, r1
		// restore the motor state
		switch (pausedMotorState) {
     29a:	80 91 06 01 	lds	r24, 0x0106
     29e:	81 30       	cpi	r24, 0x01	; 1
     2a0:	39 f0       	breq	.+14     	; 0x2b0 <pausedHandler+0x22>
     2a2:	81 30       	cpi	r24, 0x01	; 1
     2a4:	58 f0       	brcs	.+22     	; 0x2bc <pausedHandler+0x2e>
     2a6:	82 30       	cpi	r24, 0x02	; 2
     2a8:	31 f0       	breq	.+12     	; 0x2b6 <pausedHandler+0x28>
     2aa:	83 30       	cpi	r24, 0x03	; 3
     2ac:	61 f4       	brne	.+24     	; 0x2c6 <pausedHandler+0x38>
     2ae:	09 c0       	rjmp	.+18     	; 0x2c2 <pausedHandler+0x34>
			case FORWARD:
				setMotorFwd();
     2b0:	0e 94 29 01 	call	0x252	; 0x252 <setMotorFwd>
				break;
     2b4:	08 c0       	rjmp	.+16     	; 0x2c6 <pausedHandler+0x38>
			case REVERSE:
				setMotorRev();
     2b6:	0e 94 31 01 	call	0x262	; 0x262 <setMotorRev>
				break;
     2ba:	05 c0       	rjmp	.+10     	; 0x2c6 <pausedHandler+0x38>
			case BRAKE:
				setMotorBrake();
     2bc:	0e 94 39 01 	call	0x272	; 0x272 <setMotorBrake>
				break;
     2c0:	02 c0       	rjmp	.+4      	; 0x2c6 <pausedHandler+0x38>
			case COAST:
				setMotorCoast();
     2c2:	0e 94 3f 01 	call	0x27e	; 0x27e <setMotorCoast>
				break;
			default:
				break;
		}
		// see if the last item was undefined
		if(pausedForUndef) {
     2c6:	80 91 08 01 	lds	r24, 0x0108
     2ca:	88 23       	and	r24, r24
     2cc:	71 f0       	breq	.+28     	; 0x2ea <pausedHandler+0x5c>
			popBuf();
     2ce:	0e 94 fc 05 	call	0xbf8	; 0xbf8 <popBuf>
			setMotorFwd();
     2d2:	0e 94 29 01 	call	0x252	; 0x252 <setMotorFwd>
     2d6:	08 95       	ret
		}
	} else {
		// store the motor state
		pausedMotorState = motorState;
     2d8:	80 91 09 01 	lds	r24, 0x0109
     2dc:	80 93 06 01 	sts	0x0106, r24
		setMotorBrake();
     2e0:	0e 94 39 01 	call	0x272	; 0x272 <setMotorBrake>
		inPause = 1;
     2e4:	81 e0       	ldi	r24, 0x01	; 1
     2e6:	80 93 60 01 	sts	0x0160, r24
     2ea:	08 95       	ret

000002ec <vectorInterrupts>:
   external interrupts on the desired pins
   */
void vectorInterrupts() {
	
	// disable external interrupts temporarily
	EIMSK &= 0b10000000;
     2ec:	8d b3       	in	r24, 0x1d	; 29
     2ee:	80 78       	andi	r24, 0x80	; 128
     2f0:	8d bb       	out	0x1d, r24	; 29
	
	// Set all interrupt pins to input
	DDRD = DDRD & 0xF0;
     2f2:	8a b1       	in	r24, 0x0a	; 10
     2f4:	80 7f       	andi	r24, 0xF0	; 240
     2f6:	8a b9       	out	0x0a, r24	; 10
	DDRE = DDRE & 0x0F;
     2f8:	8d b1       	in	r24, 0x0d	; 13
     2fa:	8f 70       	andi	r24, 0x0F	; 15
     2fc:	8d b9       	out	0x0d, r24	; 13
	
	// INT0 - First Laser
	// Falling-edge interrupt
	EICRA |= _BV(ISC01);
     2fe:	e9 e6       	ldi	r30, 0x69	; 105
     300:	f0 e0       	ldi	r31, 0x00	; 0
     302:	80 81       	ld	r24, Z
     304:	82 60       	ori	r24, 0x02	; 2
     306:	80 83       	st	Z, r24
	EICRA &= ~(_BV(ISC00));
     308:	80 81       	ld	r24, Z
     30a:	8e 7f       	andi	r24, 0xFE	; 254
     30c:	80 83       	st	Z, r24
	
	// INT1 - Metal Detector
	// Falling-edge interrupt
	EICRA |= _BV(ISC11);
     30e:	80 81       	ld	r24, Z
     310:	88 60       	ori	r24, 0x08	; 8
     312:	80 83       	st	Z, r24
	EICRA &= ~(_BV(ISC10));
     314:	80 81       	ld	r24, Z
     316:	8b 7f       	andi	r24, 0xFB	; 251
     318:	80 83       	st	Z, r24
	
	// INT2 - Second Laser
	// Rising and falling edge interrupt
	EICRA &= ~(_BV(ISC21));
     31a:	80 81       	ld	r24, Z
     31c:	8f 7d       	andi	r24, 0xDF	; 223
     31e:	80 83       	st	Z, r24
	EICRA |= _BV(ISC20);
     320:	80 81       	ld	r24, Z
     322:	80 61       	ori	r24, 0x10	; 16
     324:	80 83       	st	Z, r24
	
	// INT3 - Exit Sensor
	// Falling-edge interrupt
	EICRA |= _BV(ISC31);
     326:	80 81       	ld	r24, Z
     328:	80 68       	ori	r24, 0x80	; 128
     32a:	80 83       	st	Z, r24
	EICRA &= ~(_BV(ISC30));	
     32c:	80 81       	ld	r24, Z
     32e:	8f 7b       	andi	r24, 0xBF	; 191
     330:	80 83       	st	Z, r24
	
	// INT4 - Hall-effect sensor
	// Falling-edge interrupt
	EICRB |= _BV(ISC41);
     332:	ea e6       	ldi	r30, 0x6A	; 106
     334:	f0 e0       	ldi	r31, 0x00	; 0
     336:	80 81       	ld	r24, Z
     338:	82 60       	ori	r24, 0x02	; 2
     33a:	80 83       	st	Z, r24
	EICRB &= ~(_BV(ISC40));
     33c:	80 81       	ld	r24, Z
     33e:	8e 7f       	andi	r24, 0xFE	; 254
     340:	80 83       	st	Z, r24
	
	// INT5 - Button2
	// Falling-edge interrupt
	EICRB |= _BV(ISC51);
     342:	80 81       	ld	r24, Z
     344:	88 60       	ori	r24, 0x08	; 8
     346:	80 83       	st	Z, r24
	EICRB &= ~(_BV(ISC50));
     348:	80 81       	ld	r24, Z
     34a:	8b 7f       	andi	r24, 0xFB	; 251
     34c:	80 83       	st	Z, r24
	
	// INT6 - Button1
	// Falling-edge interrupt
	EICRB |= _BV(ISC61);
     34e:	80 81       	ld	r24, Z
     350:	80 62       	ori	r24, 0x20	; 32
     352:	80 83       	st	Z, r24
	EICRB &= ~(_BV(ISC60));
     354:	80 81       	ld	r24, Z
     356:	8f 7e       	andi	r24, 0xEF	; 239
     358:	80 83       	st	Z, r24
	
	
	// Enable interrupts
	EIMSK |= 0b01111111;
     35a:	8d b3       	in	r24, 0x1d	; 29
     35c:	8f 67       	ori	r24, 0x7F	; 127
     35e:	8d bb       	out	0x1d, r24	; 29
	EIFR |= 0b01111111;
     360:	8c b3       	in	r24, 0x1c	; 28
     362:	8f 67       	ori	r24, 0x7F	; 127
     364:	8c bb       	out	0x1c, r24	; 28
	sei();
     366:	78 94       	sei
}
     368:	08 95       	ret

0000036a <makeDecision>:

void makeDecision(int index) {
	//if(ringBuf[index].reflSamples < REFL_MIN_SAMPLES) return; // TODO: goes to error
	//writeHexInt(ringBuf[index].avgRefl);
	int refl = ringBuf[index].minRefl;
     36a:	fc 01       	movw	r30, r24
     36c:	ee 0f       	add	r30, r30
     36e:	ff 1f       	adc	r31, r31
     370:	e8 0f       	add	r30, r24
     372:	f9 1f       	adc	r31, r25
     374:	ee 0f       	add	r30, r30
     376:	ff 1f       	adc	r31, r31
     378:	e9 59       	subi	r30, 0x99	; 153
     37a:	fe 4f       	sbci	r31, 0xFE	; 254
     37c:	22 81       	ldd	r18, Z+2	; 0x02
     37e:	33 81       	ldd	r19, Z+3	; 0x03
	if(ringBuf[index].metal == 1) {
     380:	41 81       	ldd	r20, Z+1	; 0x01
     382:	41 30       	cpi	r20, 0x01	; 1
     384:	91 f4       	brne	.+36     	; 0x3aa <makeDecision+0x40>
		if((refl < STEEL_MAX) && (refl > STEEL_MIN)) {
			ringBuf[index].type = STEEL;
			return;
		}
		if((refl < ALUMINUM_MAX) && (refl > ALUMINUM_MIN)) {
     386:	2f 51       	subi	r18, 0x1F	; 31
     388:	30 40       	sbci	r19, 0x00	; 0
     38a:	27 31       	cpi	r18, 0x17	; 23
     38c:	31 05       	cpc	r19, r1
     38e:	90 f5       	brcc	.+100    	; 0x3f4 <makeDecision+0x8a>
			ringBuf[index].type = ALUMINUM;
     390:	fc 01       	movw	r30, r24
     392:	ee 0f       	add	r30, r30
     394:	ff 1f       	adc	r31, r31
     396:	8e 0f       	add	r24, r30
     398:	9f 1f       	adc	r25, r31
     39a:	fc 01       	movw	r30, r24
     39c:	ee 0f       	add	r30, r30
     39e:	ff 1f       	adc	r31, r31
     3a0:	e9 59       	subi	r30, 0x99	; 153
     3a2:	fe 4f       	sbci	r31, 0xFE	; 254
     3a4:	84 e0       	ldi	r24, 0x04	; 4
     3a6:	80 83       	st	Z, r24
			return;
     3a8:	08 95       	ret
		}
	} else {	
		if((refl < BLACK_MAX) && (refl > BLACK_MIN)) {
     3aa:	a9 01       	movw	r20, r18
     3ac:	44 5f       	subi	r20, 0xF4	; 244
     3ae:	51 40       	sbci	r21, 0x01	; 1
     3b0:	44 31       	cpi	r20, 0x14	; 20
     3b2:	51 05       	cpc	r21, r1
     3b4:	68 f4       	brcc	.+26     	; 0x3d0 <makeDecision+0x66>
			ringBuf[index].type = BLACK;
     3b6:	fc 01       	movw	r30, r24
     3b8:	ee 0f       	add	r30, r30
     3ba:	ff 1f       	adc	r31, r31
     3bc:	8e 0f       	add	r24, r30
     3be:	9f 1f       	adc	r25, r31
     3c0:	fc 01       	movw	r30, r24
     3c2:	ee 0f       	add	r30, r30
     3c4:	ff 1f       	adc	r31, r31
     3c6:	e9 59       	subi	r30, 0x99	; 153
     3c8:	fe 4f       	sbci	r31, 0xFE	; 254
     3ca:	81 e0       	ldi	r24, 0x01	; 1
     3cc:	80 83       	st	Z, r24
			return;
     3ce:	08 95       	ret
		}
		if((refl < WHITE_MAX) && (refl > WHITE_MIN)) {
     3d0:	29 5b       	subi	r18, 0xB9	; 185
     3d2:	31 40       	sbci	r19, 0x01	; 1
     3d4:	21 33       	cpi	r18, 0x31	; 49
     3d6:	31 05       	cpc	r19, r1
     3d8:	68 f4       	brcc	.+26     	; 0x3f4 <makeDecision+0x8a>
			ringBuf[index].type = WHITE;
     3da:	fc 01       	movw	r30, r24
     3dc:	ee 0f       	add	r30, r30
     3de:	ff 1f       	adc	r31, r31
     3e0:	8e 0f       	add	r24, r30
     3e2:	9f 1f       	adc	r25, r31
     3e4:	fc 01       	movw	r30, r24
     3e6:	ee 0f       	add	r30, r30
     3e8:	ff 1f       	adc	r31, r31
     3ea:	e9 59       	subi	r30, 0x99	; 153
     3ec:	fe 4f       	sbci	r31, 0xFE	; 254
     3ee:	82 e0       	ldi	r24, 0x02	; 2
     3f0:	80 83       	st	Z, r24
			return;
     3f2:	08 95       	ret
		}
	}
	writeHexInt(0xEF);	
     3f4:	8f ee       	ldi	r24, 0xEF	; 239
     3f6:	90 e0       	ldi	r25, 0x00	; 0
     3f8:	0e 94 bf 07 	call	0xf7e	; 0xf7e <writeHexInt>
     3fc:	08 95       	ret

000003fe <firstLaserHandler>:
/* void firstLaserHandler()
   Purpose: handler for the first laser
   */
void firstLaserHandler() {
	// no pending item
	if(currentMetal == -1) {
     3fe:	80 91 b0 01 	lds	r24, 0x01B0
     402:	90 91 b1 01 	lds	r25, 0x01B1
     406:	2f ef       	ldi	r18, 0xFF	; 255
     408:	8f 3f       	cpi	r24, 0xFF	; 255
     40a:	92 07       	cpc	r25, r18
     40c:	39 f4       	brne	.+14     	; 0x41c <firstLaserHandler+0x1e>
		currentMetal = newRingBufItem();
     40e:	0e 94 20 06 	call	0xc40	; 0xc40 <newRingBufItem>
     412:	90 93 b1 01 	sts	0x01B1, r25
     416:	80 93 b0 01 	sts	0x01B0, r24
     41a:	08 95       	ret
	} else {
		//item in conversion
		
		// place the currently converting item on the queue
		newMetal(currentMetal);
     41c:	0e 94 8a 05 	call	0xb14	; 0xb14 <newMetal>
		
		// make the new item and start conversion
		currentMetal = newRingBufItem();
     420:	0e 94 20 06 	call	0xc40	; 0xc40 <newRingBufItem>
     424:	90 93 b1 01 	sts	0x01B1, r25
     428:	80 93 b0 01 	sts	0x01B0, r24
     42c:	08 95       	ret

0000042e <metalHandler>:

/* void metalHandler()
   Purpose: handler for the inductive sensor
   */
void metalHandler() {
	if(currentMetal != -1) ringBuf[currentMetal].metal = 1;
     42e:	80 91 b0 01 	lds	r24, 0x01B0
     432:	90 91 b1 01 	lds	r25, 0x01B1
     436:	2f ef       	ldi	r18, 0xFF	; 255
     438:	8f 3f       	cpi	r24, 0xFF	; 255
     43a:	92 07       	cpc	r25, r18
     43c:	61 f0       	breq	.+24     	; 0x456 <metalHandler+0x28>
     43e:	fc 01       	movw	r30, r24
     440:	ee 0f       	add	r30, r30
     442:	ff 1f       	adc	r31, r31
     444:	8e 0f       	add	r24, r30
     446:	9f 1f       	adc	r25, r31
     448:	fc 01       	movw	r30, r24
     44a:	ee 0f       	add	r30, r30
     44c:	ff 1f       	adc	r31, r31
     44e:	e9 59       	subi	r30, 0x99	; 153
     450:	fe 4f       	sbci	r31, 0xFE	; 254
     452:	81 e0       	ldi	r24, 0x01	; 1
     454:	81 83       	std	Z+1, r24	; 0x01
     456:	08 95       	ret

00000458 <secondLaserHandler>:
/* void secondLaserHandler()
   Purpose: on RE completes the inductive stage and starts
   the reflectivity stage.
   on FE completes the reflective stage */
void secondLaserHandler() {
	if(ADC_is_running == 1) {
     458:	80 91 05 01 	lds	r24, 0x0105
     45c:	81 30       	cpi	r24, 0x01	; 1
     45e:	99 f4       	brne	.+38     	; 0x486 <secondLaserHandler+0x2e>
		// debounce
		Ignore_ADC_samples = 1;
     460:	80 93 04 01 	sts	0x0104, r24
		delaynms(DEBOUNCE_DELAY);
     464:	83 e0       	ldi	r24, 0x03	; 3
     466:	90 e0       	ldi	r25, 0x00	; 0
     468:	0e 94 f4 08 	call	0x11e8	; 0x11e8 <delaynms>
		Ignore_ADC_samples = 0;
     46c:	10 92 04 01 	sts	0x0104, r1
		if((PIND & 0b00000100) == 0b100) return;
     470:	4a 99       	sbic	0x09, 2	; 9
     472:	2c c0       	rjmp	.+88     	; 0x4cc <secondLaserHandler+0x74>
		// stop ADC
		stopADC();
     474:	0e 94 8f 00 	call	0x11e	; 0x11e <stopADC>
		makeDecision(currentRefl);
     478:	80 91 63 01 	lds	r24, 0x0163
     47c:	90 91 64 01 	lds	r25, 0x0164
     480:	0e 94 b5 01 	call	0x36a	; 0x36a <makeDecision>
     484:	08 95       	ret
		// TODO
	} else {
		delaynms(DEBOUNCE_DELAY);
     486:	83 e0       	ldi	r24, 0x03	; 3
     488:	90 e0       	ldi	r25, 0x00	; 0
     48a:	0e 94 f4 08 	call	0x11e8	; 0x11e8 <delaynms>
		if((PIND & 0b00000100) == 0) return;
     48e:	4a 9b       	sbis	0x09, 2	; 9
     490:	1d c0       	rjmp	.+58     	; 0x4cc <secondLaserHandler+0x74>
		if(metalCount == 0) {
     492:	80 91 0e 01 	lds	r24, 0x010E
     496:	90 91 0f 01 	lds	r25, 0x010F
     49a:	00 97       	sbiw	r24, 0x00	; 0
     49c:	79 f4       	brne	.+30     	; 0x4bc <secondLaserHandler+0x64>
			currentRefl = currentMetal;
     49e:	80 91 b0 01 	lds	r24, 0x01B0
     4a2:	90 91 b1 01 	lds	r25, 0x01B1
     4a6:	90 93 64 01 	sts	0x0164, r25
     4aa:	80 93 63 01 	sts	0x0163, r24
			currentMetal = -1;
     4ae:	8f ef       	ldi	r24, 0xFF	; 255
     4b0:	9f ef       	ldi	r25, 0xFF	; 255
     4b2:	90 93 b1 01 	sts	0x01B1, r25
     4b6:	80 93 b0 01 	sts	0x01B0, r24
     4ba:	06 c0       	rjmp	.+12     	; 0x4c8 <secondLaserHandler+0x70>
		} else {
			currentRefl = popMetal();
     4bc:	0e 94 5e 05 	call	0xabc	; 0xabc <popMetal>
     4c0:	90 93 64 01 	sts	0x0164, r25
     4c4:	80 93 63 01 	sts	0x0163, r24
		}			
		startADC();
     4c8:	0e 94 85 00 	call	0x10a	; 0x10a <startADC>
     4cc:	08 95       	ret

000004ce <exitHandler>:
/* void exitHandler()
   Purpose: handles the exit sensor
   */
void exitHandler() {
	// is there an item on the queue?
	if(bufLength==0) return;
     4ce:	80 91 ac 01 	lds	r24, 0x01AC
     4d2:	90 91 ad 01 	lds	r25, 0x01AD
     4d6:	00 97       	sbiw	r24, 0x00	; 0
     4d8:	09 f4       	brne	.+2      	; 0x4dc <exitHandler+0xe>
     4da:	b2 c0       	rjmp	.+356    	; 0x640 <exitHandler+0x172>
	// if we're in pause, ignore it as it's probably
	// the operator pulling the piece off
	if(inPause==1) return;
     4dc:	80 91 60 01 	lds	r24, 0x0160
     4e0:	81 30       	cpi	r24, 0x01	; 1
     4e2:	09 f4       	brne	.+2      	; 0x4e6 <exitHandler+0x18>
     4e4:	ad c0       	rjmp	.+346    	; 0x640 <exitHandler+0x172>
	// are we in position?
	switch(ringBuf[ringTop].type) {
     4e6:	80 91 65 01 	lds	r24, 0x0165
     4ea:	90 91 66 01 	lds	r25, 0x0166
     4ee:	fc 01       	movw	r30, r24
     4f0:	ee 0f       	add	r30, r30
     4f2:	ff 1f       	adc	r31, r31
     4f4:	8e 0f       	add	r24, r30
     4f6:	9f 1f       	adc	r25, r31
     4f8:	fc 01       	movw	r30, r24
     4fa:	ee 0f       	add	r30, r30
     4fc:	ff 1f       	adc	r31, r31
     4fe:	e9 59       	subi	r30, 0x99	; 153
     500:	fe 4f       	sbci	r31, 0xFE	; 254
     502:	80 81       	ld	r24, Z
     504:	82 30       	cpi	r24, 0x02	; 2
     506:	09 f4       	brne	.+2      	; 0x50a <exitHandler+0x3c>
     508:	6b c0       	rjmp	.+214    	; 0x5e0 <exitHandler+0x112>
     50a:	83 30       	cpi	r24, 0x03	; 3
     50c:	20 f4       	brcc	.+8      	; 0x516 <exitHandler+0x48>
     50e:	81 30       	cpi	r24, 0x01	; 1
     510:	09 f0       	breq	.+2      	; 0x514 <exitHandler+0x46>
     512:	85 c0       	rjmp	.+266    	; 0x61e <exitHandler+0x150>
     514:	06 c0       	rjmp	.+12     	; 0x522 <exitHandler+0x54>
     516:	83 30       	cpi	r24, 0x03	; 3
     518:	19 f1       	breq	.+70     	; 0x560 <exitHandler+0x92>
     51a:	84 30       	cpi	r24, 0x04	; 4
     51c:	09 f0       	breq	.+2      	; 0x520 <exitHandler+0x52>
     51e:	7f c0       	rjmp	.+254    	; 0x61e <exitHandler+0x150>
     520:	3f c0       	rjmp	.+126    	; 0x5a0 <exitHandler+0xd2>
		case BLACK:
			if(steps==BLACK_POSITION) {
     522:	80 91 b4 01 	lds	r24, 0x01B4
     526:	90 91 b5 01 	lds	r25, 0x01B5
     52a:	00 97       	sbiw	r24, 0x00	; 0
     52c:	09 f0       	breq	.+2      	; 0x530 <exitHandler+0x62>
     52e:	83 c0       	rjmp	.+262    	; 0x636 <exitHandler+0x168>
				blackSorted++;
     530:	80 91 a8 01 	lds	r24, 0x01A8
     534:	90 91 a9 01 	lds	r25, 0x01A9
     538:	01 96       	adiw	r24, 0x01	; 1
     53a:	90 93 a9 01 	sts	0x01A9, r25
     53e:	80 93 a8 01 	sts	0x01A8, r24
				totalSorted++;
     542:	20 91 ae 01 	lds	r18, 0x01AE
     546:	30 91 af 01 	lds	r19, 0x01AF
     54a:	2f 5f       	subi	r18, 0xFF	; 255
     54c:	3f 4f       	sbci	r19, 0xFF	; 255
     54e:	30 93 af 01 	sts	0x01AF, r19
     552:	20 93 ae 01 	sts	0x01AE, r18
				writeBlack(blackSorted);
     556:	0e 94 56 07 	call	0xeac	; 0xeac <writeBlack>
				popBuf();
     55a:	0e 94 fc 05 	call	0xbf8	; 0xbf8 <popBuf>
				return;
     55e:	08 95       	ret
			}
			break;
		case STEEL:
			if(steps==STEEL_POSITION) {
     560:	80 91 b4 01 	lds	r24, 0x01B4
     564:	90 91 b5 01 	lds	r25, 0x01B5
     568:	86 39       	cpi	r24, 0x96	; 150
     56a:	91 05       	cpc	r25, r1
     56c:	09 f0       	breq	.+2      	; 0x570 <exitHandler+0xa2>
     56e:	63 c0       	rjmp	.+198    	; 0x636 <exitHandler+0x168>
				steelSorted++;
     570:	80 91 a3 01 	lds	r24, 0x01A3
     574:	90 91 a4 01 	lds	r25, 0x01A4
     578:	01 96       	adiw	r24, 0x01	; 1
     57a:	90 93 a4 01 	sts	0x01A4, r25
     57e:	80 93 a3 01 	sts	0x01A3, r24
				totalSorted++;
     582:	20 91 ae 01 	lds	r18, 0x01AE
     586:	30 91 af 01 	lds	r19, 0x01AF
     58a:	2f 5f       	subi	r18, 0xFF	; 255
     58c:	3f 4f       	sbci	r19, 0xFF	; 255
     58e:	30 93 af 01 	sts	0x01AF, r19
     592:	20 93 ae 01 	sts	0x01AE, r18
				writeSteel(steelSorted);
     596:	0e 94 32 07 	call	0xe64	; 0xe64 <writeSteel>
				popBuf();
     59a:	0e 94 fc 05 	call	0xbf8	; 0xbf8 <popBuf>
				return;
     59e:	08 95       	ret
			}
			break;
		case ALUMINUM:
			if(steps==ALUMINUM_POSIITION) {
     5a0:	80 91 b4 01 	lds	r24, 0x01B4
     5a4:	90 91 b5 01 	lds	r25, 0x01B5
     5a8:	82 33       	cpi	r24, 0x32	; 50
     5aa:	91 05       	cpc	r25, r1
     5ac:	09 f0       	breq	.+2      	; 0x5b0 <exitHandler+0xe2>
     5ae:	43 c0       	rjmp	.+134    	; 0x636 <exitHandler+0x168>
				aluminumSorted++;
     5b0:	80 91 a5 01 	lds	r24, 0x01A5
     5b4:	90 91 a6 01 	lds	r25, 0x01A6
     5b8:	01 96       	adiw	r24, 0x01	; 1
     5ba:	90 93 a6 01 	sts	0x01A6, r25
     5be:	80 93 a5 01 	sts	0x01A5, r24
				totalSorted++;
     5c2:	20 91 ae 01 	lds	r18, 0x01AE
     5c6:	30 91 af 01 	lds	r19, 0x01AF
     5ca:	2f 5f       	subi	r18, 0xFF	; 255
     5cc:	3f 4f       	sbci	r19, 0xFF	; 255
     5ce:	30 93 af 01 	sts	0x01AF, r19
     5d2:	20 93 ae 01 	sts	0x01AE, r18
				writeAluminum(aluminumSorted);
     5d6:	0e 94 0e 07 	call	0xe1c	; 0xe1c <writeAluminum>
				popBuf();
     5da:	0e 94 fc 05 	call	0xbf8	; 0xbf8 <popBuf>
				return;
     5de:	08 95       	ret
			}
			break;
		case WHITE:
			if(steps==WHITE_POSITION) {
     5e0:	80 91 b4 01 	lds	r24, 0x01B4
     5e4:	90 91 b5 01 	lds	r25, 0x01B5
     5e8:	84 36       	cpi	r24, 0x64	; 100
     5ea:	91 05       	cpc	r25, r1
     5ec:	21 f5       	brne	.+72     	; 0x636 <exitHandler+0x168>
				whiteSorted++;
     5ee:	80 91 aa 01 	lds	r24, 0x01AA
     5f2:	90 91 ab 01 	lds	r25, 0x01AB
     5f6:	01 96       	adiw	r24, 0x01	; 1
     5f8:	90 93 ab 01 	sts	0x01AB, r25
     5fc:	80 93 aa 01 	sts	0x01AA, r24
				totalSorted++;
     600:	20 91 ae 01 	lds	r18, 0x01AE
     604:	30 91 af 01 	lds	r19, 0x01AF
     608:	2f 5f       	subi	r18, 0xFF	; 255
     60a:	3f 4f       	sbci	r19, 0xFF	; 255
     60c:	30 93 af 01 	sts	0x01AF, r19
     610:	20 93 ae 01 	sts	0x01AE, r18
				writeWhite(whiteSorted);
     614:	0e 94 7a 07 	call	0xef4	; 0xef4 <writeWhite>
				popBuf();
     618:	0e 94 fc 05 	call	0xbf8	; 0xbf8 <popBuf>
				return;
     61c:	08 95       	ret
			}
			break;
		default:
			//undefined item
			writeError(0xF0);
     61e:	80 ef       	ldi	r24, 0xF0	; 240
     620:	90 e0       	ldi	r25, 0x00	; 0
     622:	0e 94 bf 06 	call	0xd7e	; 0xd7e <writeError>
			pausedForUndef = 1;
     626:	81 e0       	ldi	r24, 0x01	; 1
     628:	80 93 08 01 	sts	0x0108, r24
			setMotorBrake();
     62c:	0e 94 39 01 	call	0x272	; 0x272 <setMotorBrake>
			pausedHandler();
     630:	0e 94 47 01 	call	0x28e	; 0x28e <pausedHandler>
			return;
     634:	08 95       	ret
			break;
	}			
	// we got here, so we're not at the correct position yet.
	// stop the motor
	setMotorBrake();
     636:	0e 94 39 01 	call	0x272	; 0x272 <setMotorBrake>
	// set a flag to let the stepper know we're waiting
	motorWaitForStepper = 1;
     63a:	81 e0       	ldi	r24, 0x01	; 1
     63c:	80 93 07 01 	sts	0x0107, r24
     640:	08 95       	ret

00000642 <shutdownHandler>:
}

void shutdownHandler() {
	if(bufLength == 0) {
     642:	80 91 ac 01 	lds	r24, 0x01AC
     646:	90 91 ad 01 	lds	r25, 0x01AD
     64a:	00 97       	sbiw	r24, 0x00	; 0
     64c:	39 f4       	brne	.+14     	; 0x65c <shutdownHandler+0x1a>
		delaynms(500);
     64e:	84 ef       	ldi	r24, 0xF4	; 244
     650:	91 e0       	ldi	r25, 0x01	; 1
     652:	0e 94 f4 08 	call	0x11e8	; 0x11e8 <delaynms>
		setMotorBrake();
     656:	0e 94 39 01 	call	0x272	; 0x272 <setMotorBrake>
     65a:	ff cf       	rjmp	.-2      	; 0x65a <shutdownHandler+0x18>
     65c:	08 95       	ret

0000065e <__vector_1>:

/* ISR(INT0_vect)
   Purpose: Falling-edge interrupt vector
   for FIRST LASER
   */
ISR(INT0_vect){
     65e:	1f 92       	push	r1
     660:	0f 92       	push	r0
     662:	0f b6       	in	r0, 0x3f	; 63
     664:	0f 92       	push	r0
     666:	0b b6       	in	r0, 0x3b	; 59
     668:	0f 92       	push	r0
     66a:	11 24       	eor	r1, r1
     66c:	2f 93       	push	r18
     66e:	3f 93       	push	r19
     670:	4f 93       	push	r20
     672:	5f 93       	push	r21
     674:	6f 93       	push	r22
     676:	7f 93       	push	r23
     678:	8f 93       	push	r24
     67a:	9f 93       	push	r25
     67c:	af 93       	push	r26
     67e:	bf 93       	push	r27
     680:	ef 93       	push	r30
     682:	ff 93       	push	r31
	delaynms(DEBOUNCE_DELAY);
     684:	83 e0       	ldi	r24, 0x03	; 3
     686:	90 e0       	ldi	r25, 0x00	; 0
     688:	0e 94 f4 08 	call	0x11e8	; 0x11e8 <delaynms>
	if((PIND & 0b1) == 0) firstLaserHandler();
     68c:	48 99       	sbic	0x09, 0	; 9
     68e:	02 c0       	rjmp	.+4      	; 0x694 <__vector_1+0x36>
     690:	0e 94 ff 01 	call	0x3fe	; 0x3fe <firstLaserHandler>
}
     694:	ff 91       	pop	r31
     696:	ef 91       	pop	r30
     698:	bf 91       	pop	r27
     69a:	af 91       	pop	r26
     69c:	9f 91       	pop	r25
     69e:	8f 91       	pop	r24
     6a0:	7f 91       	pop	r23
     6a2:	6f 91       	pop	r22
     6a4:	5f 91       	pop	r21
     6a6:	4f 91       	pop	r20
     6a8:	3f 91       	pop	r19
     6aa:	2f 91       	pop	r18
     6ac:	0f 90       	pop	r0
     6ae:	0b be       	out	0x3b, r0	; 59
     6b0:	0f 90       	pop	r0
     6b2:	0f be       	out	0x3f, r0	; 63
     6b4:	0f 90       	pop	r0
     6b6:	1f 90       	pop	r1
     6b8:	18 95       	reti

000006ba <__vector_2>:

/* ISR(INT1_vect)
   Purpose: Falling-edge interrupt vector
   for INDUCTIVE SENSOR
   */
ISR(INT1_vect){
     6ba:	1f 92       	push	r1
     6bc:	0f 92       	push	r0
     6be:	0f b6       	in	r0, 0x3f	; 63
     6c0:	0f 92       	push	r0
     6c2:	0b b6       	in	r0, 0x3b	; 59
     6c4:	0f 92       	push	r0
     6c6:	11 24       	eor	r1, r1
     6c8:	2f 93       	push	r18
     6ca:	3f 93       	push	r19
     6cc:	4f 93       	push	r20
     6ce:	5f 93       	push	r21
     6d0:	6f 93       	push	r22
     6d2:	7f 93       	push	r23
     6d4:	8f 93       	push	r24
     6d6:	9f 93       	push	r25
     6d8:	af 93       	push	r26
     6da:	bf 93       	push	r27
     6dc:	ef 93       	push	r30
     6de:	ff 93       	push	r31
	delaynms(DEBOUNCE_DELAY);
     6e0:	83 e0       	ldi	r24, 0x03	; 3
     6e2:	90 e0       	ldi	r25, 0x00	; 0
     6e4:	0e 94 f4 08 	call	0x11e8	; 0x11e8 <delaynms>
	if((PIND & (1 << 1)) == 0) metalHandler();
     6e8:	49 99       	sbic	0x09, 1	; 9
     6ea:	02 c0       	rjmp	.+4      	; 0x6f0 <__vector_2+0x36>
     6ec:	0e 94 17 02 	call	0x42e	; 0x42e <metalHandler>
}
     6f0:	ff 91       	pop	r31
     6f2:	ef 91       	pop	r30
     6f4:	bf 91       	pop	r27
     6f6:	af 91       	pop	r26
     6f8:	9f 91       	pop	r25
     6fa:	8f 91       	pop	r24
     6fc:	7f 91       	pop	r23
     6fe:	6f 91       	pop	r22
     700:	5f 91       	pop	r21
     702:	4f 91       	pop	r20
     704:	3f 91       	pop	r19
     706:	2f 91       	pop	r18
     708:	0f 90       	pop	r0
     70a:	0b be       	out	0x3b, r0	; 59
     70c:	0f 90       	pop	r0
     70e:	0f be       	out	0x3f, r0	; 63
     710:	0f 90       	pop	r0
     712:	1f 90       	pop	r1
     714:	18 95       	reti

00000716 <__vector_3>:

/* ISR(INT2_vect)
   Purpose: Rising and falling-edge interrupt
   vector for SECOND LASER
   */
ISR(INT2_vect){
     716:	1f 92       	push	r1
     718:	0f 92       	push	r0
     71a:	0f b6       	in	r0, 0x3f	; 63
     71c:	0f 92       	push	r0
     71e:	0b b6       	in	r0, 0x3b	; 59
     720:	0f 92       	push	r0
     722:	11 24       	eor	r1, r1
     724:	2f 93       	push	r18
     726:	3f 93       	push	r19
     728:	4f 93       	push	r20
     72a:	5f 93       	push	r21
     72c:	6f 93       	push	r22
     72e:	7f 93       	push	r23
     730:	8f 93       	push	r24
     732:	9f 93       	push	r25
     734:	af 93       	push	r26
     736:	bf 93       	push	r27
     738:	ef 93       	push	r30
     73a:	ff 93       	push	r31
	// debounce is handled by function call
	secondLaserHandler();
     73c:	0e 94 2c 02 	call	0x458	; 0x458 <secondLaserHandler>
}
     740:	ff 91       	pop	r31
     742:	ef 91       	pop	r30
     744:	bf 91       	pop	r27
     746:	af 91       	pop	r26
     748:	9f 91       	pop	r25
     74a:	8f 91       	pop	r24
     74c:	7f 91       	pop	r23
     74e:	6f 91       	pop	r22
     750:	5f 91       	pop	r21
     752:	4f 91       	pop	r20
     754:	3f 91       	pop	r19
     756:	2f 91       	pop	r18
     758:	0f 90       	pop	r0
     75a:	0b be       	out	0x3b, r0	; 59
     75c:	0f 90       	pop	r0
     75e:	0f be       	out	0x3f, r0	; 63
     760:	0f 90       	pop	r0
     762:	1f 90       	pop	r1
     764:	18 95       	reti

00000766 <__vector_4>:

/* ISR(INT3_vect)
   Purpose: Falling-edge interrupt vector
   for EXIT SENSOR
   */
ISR(INT3_vect) {
     766:	1f 92       	push	r1
     768:	0f 92       	push	r0
     76a:	0f b6       	in	r0, 0x3f	; 63
     76c:	0f 92       	push	r0
     76e:	0b b6       	in	r0, 0x3b	; 59
     770:	0f 92       	push	r0
     772:	11 24       	eor	r1, r1
     774:	2f 93       	push	r18
     776:	3f 93       	push	r19
     778:	4f 93       	push	r20
     77a:	5f 93       	push	r21
     77c:	6f 93       	push	r22
     77e:	7f 93       	push	r23
     780:	8f 93       	push	r24
     782:	9f 93       	push	r25
     784:	af 93       	push	r26
     786:	bf 93       	push	r27
     788:	ef 93       	push	r30
     78a:	ff 93       	push	r31
	delaynms(DEBOUNCE_DELAY);
     78c:	83 e0       	ldi	r24, 0x03	; 3
     78e:	90 e0       	ldi	r25, 0x00	; 0
     790:	0e 94 f4 08 	call	0x11e8	; 0x11e8 <delaynms>
	if((PIND & (1 << 3)) == 0) exitHandler();
     794:	4b 99       	sbic	0x09, 3	; 9
     796:	02 c0       	rjmp	.+4      	; 0x79c <__vector_4+0x36>
     798:	0e 94 67 02 	call	0x4ce	; 0x4ce <exitHandler>
}
     79c:	ff 91       	pop	r31
     79e:	ef 91       	pop	r30
     7a0:	bf 91       	pop	r27
     7a2:	af 91       	pop	r26
     7a4:	9f 91       	pop	r25
     7a6:	8f 91       	pop	r24
     7a8:	7f 91       	pop	r23
     7aa:	6f 91       	pop	r22
     7ac:	5f 91       	pop	r21
     7ae:	4f 91       	pop	r20
     7b0:	3f 91       	pop	r19
     7b2:	2f 91       	pop	r18
     7b4:	0f 90       	pop	r0
     7b6:	0b be       	out	0x3b, r0	; 59
     7b8:	0f 90       	pop	r0
     7ba:	0f be       	out	0x3f, r0	; 63
     7bc:	0f 90       	pop	r0
     7be:	1f 90       	pop	r1
     7c0:	18 95       	reti

000007c2 <__vector_5>:

/* ISR(INT4_vect)
   Purpose: Falling-edge interrupt vector
   for HALL EFFECT SENSOR
   */
ISR(INT4_vect) {
     7c2:	1f 92       	push	r1
     7c4:	0f 92       	push	r0
     7c6:	0f b6       	in	r0, 0x3f	; 63
     7c8:	0f 92       	push	r0
     7ca:	0b b6       	in	r0, 0x3b	; 59
     7cc:	0f 92       	push	r0
     7ce:	11 24       	eor	r1, r1
     7d0:	2f 93       	push	r18
     7d2:	3f 93       	push	r19
     7d4:	4f 93       	push	r20
     7d6:	5f 93       	push	r21
     7d8:	6f 93       	push	r22
     7da:	7f 93       	push	r23
     7dc:	8f 93       	push	r24
     7de:	9f 93       	push	r25
     7e0:	af 93       	push	r26
     7e2:	bf 93       	push	r27
     7e4:	ef 93       	push	r30
     7e6:	ff 93       	push	r31
	delaynms(DEBOUNCE_DELAY);
     7e8:	83 e0       	ldi	r24, 0x03	; 3
     7ea:	90 e0       	ldi	r25, 0x00	; 0
     7ec:	0e 94 f4 08 	call	0x11e8	; 0x11e8 <delaynms>
	if((PINE & (1 << 4)) == 0) hallLow = 1;
     7f0:	64 99       	sbic	0x0c, 4	; 12
     7f2:	03 c0       	rjmp	.+6      	; 0x7fa <__vector_5+0x38>
     7f4:	81 e0       	ldi	r24, 0x01	; 1
     7f6:	80 93 b6 01 	sts	0x01B6, r24
}
     7fa:	ff 91       	pop	r31
     7fc:	ef 91       	pop	r30
     7fe:	bf 91       	pop	r27
     800:	af 91       	pop	r26
     802:	9f 91       	pop	r25
     804:	8f 91       	pop	r24
     806:	7f 91       	pop	r23
     808:	6f 91       	pop	r22
     80a:	5f 91       	pop	r21
     80c:	4f 91       	pop	r20
     80e:	3f 91       	pop	r19
     810:	2f 91       	pop	r18
     812:	0f 90       	pop	r0
     814:	0b be       	out	0x3b, r0	; 59
     816:	0f 90       	pop	r0
     818:	0f be       	out	0x3f, r0	; 63
     81a:	0f 90       	pop	r0
     81c:	1f 90       	pop	r1
     81e:	18 95       	reti

00000820 <__vector_6>:

/* ISR(INT5_vect)
   Purpose: Falling-edge interrupt vector
   for BUTTON 2
   */
ISR(INT5_vect) {
     820:	1f 92       	push	r1
     822:	0f 92       	push	r0
     824:	0f b6       	in	r0, 0x3f	; 63
     826:	0f 92       	push	r0
     828:	0b b6       	in	r0, 0x3b	; 59
     82a:	0f 92       	push	r0
     82c:	11 24       	eor	r1, r1
     82e:	2f 93       	push	r18
     830:	3f 93       	push	r19
     832:	4f 93       	push	r20
     834:	5f 93       	push	r21
     836:	6f 93       	push	r22
     838:	7f 93       	push	r23
     83a:	8f 93       	push	r24
     83c:	9f 93       	push	r25
     83e:	af 93       	push	r26
     840:	bf 93       	push	r27
     842:	ef 93       	push	r30
     844:	ff 93       	push	r31
	delaynms(BUTTON_DEBOUNCE_DELAY);
     846:	84 e1       	ldi	r24, 0x14	; 20
     848:	90 e0       	ldi	r25, 0x00	; 0
     84a:	0e 94 f4 08 	call	0x11e8	; 0x11e8 <delaynms>
	if((PINE & (1 << 5)) == 0) {
     84e:	65 99       	sbic	0x0c, 5	; 12
     850:	05 c0       	rjmp	.+10     	; 0x85c <__vector_6+0x3c>
		shutdown = 1;
     852:	81 e0       	ldi	r24, 0x01	; 1
     854:	80 93 a7 01 	sts	0x01A7, r24
		shutdownHandler();
     858:	0e 94 21 03 	call	0x642	; 0x642 <shutdownHandler>
	}
}
     85c:	ff 91       	pop	r31
     85e:	ef 91       	pop	r30
     860:	bf 91       	pop	r27
     862:	af 91       	pop	r26
     864:	9f 91       	pop	r25
     866:	8f 91       	pop	r24
     868:	7f 91       	pop	r23
     86a:	6f 91       	pop	r22
     86c:	5f 91       	pop	r21
     86e:	4f 91       	pop	r20
     870:	3f 91       	pop	r19
     872:	2f 91       	pop	r18
     874:	0f 90       	pop	r0
     876:	0b be       	out	0x3b, r0	; 59
     878:	0f 90       	pop	r0
     87a:	0f be       	out	0x3f, r0	; 63
     87c:	0f 90       	pop	r0
     87e:	1f 90       	pop	r1
     880:	18 95       	reti

00000882 <__vector_7>:

/* ISR(INT6_vect)
   Purpose: Falling-edge interrupt vector
   for BUTTON 1
   */
ISR(INT6_vect){
     882:	1f 92       	push	r1
     884:	0f 92       	push	r0
     886:	0f b6       	in	r0, 0x3f	; 63
     888:	0f 92       	push	r0
     88a:	0b b6       	in	r0, 0x3b	; 59
     88c:	0f 92       	push	r0
     88e:	11 24       	eor	r1, r1
     890:	2f 93       	push	r18
     892:	3f 93       	push	r19
     894:	4f 93       	push	r20
     896:	5f 93       	push	r21
     898:	6f 93       	push	r22
     89a:	7f 93       	push	r23
     89c:	8f 93       	push	r24
     89e:	9f 93       	push	r25
     8a0:	af 93       	push	r26
     8a2:	bf 93       	push	r27
     8a4:	ef 93       	push	r30
     8a6:	ff 93       	push	r31
	delaynms(BUTTON_DEBOUNCE_DELAY);
     8a8:	84 e1       	ldi	r24, 0x14	; 20
     8aa:	90 e0       	ldi	r25, 0x00	; 0
     8ac:	0e 94 f4 08 	call	0x11e8	; 0x11e8 <delaynms>
	if((PINE & (1 << 6)) == 0) {
     8b0:	66 99       	sbic	0x0c, 6	; 12
     8b2:	02 c0       	rjmp	.+4      	; 0x8b8 <__vector_7+0x36>
		pausedHandler();
     8b4:	0e 94 47 01 	call	0x28e	; 0x28e <pausedHandler>
	}
     8b8:	ff 91       	pop	r31
     8ba:	ef 91       	pop	r30
     8bc:	bf 91       	pop	r27
     8be:	af 91       	pop	r26
     8c0:	9f 91       	pop	r25
     8c2:	8f 91       	pop	r24
     8c4:	7f 91       	pop	r23
     8c6:	6f 91       	pop	r22
     8c8:	5f 91       	pop	r21
     8ca:	4f 91       	pop	r20
     8cc:	3f 91       	pop	r19
     8ce:	2f 91       	pop	r18
     8d0:	0f 90       	pop	r0
     8d2:	0b be       	out	0x3b, r0	; 59
     8d4:	0f 90       	pop	r0
     8d6:	0f be       	out	0x3f, r0	; 63
     8d8:	0f 90       	pop	r0
     8da:	1f 90       	pop	r1
     8dc:	18 95       	reti

000008de <main>:

int main(void)
{
	// Set the dev board's clock speed to the external oscillator with
	// no prescaler (8MHz)
	CLKPR = (1<<CLKPCE);
     8de:	e1 e6       	ldi	r30, 0x61	; 97
     8e0:	f0 e0       	ldi	r31, 0x00	; 0
     8e2:	80 e8       	ldi	r24, 0x80	; 128
     8e4:	80 83       	st	Z, r24
	CLKPR = 0;
     8e6:	10 82       	st	Z, r1
	
	// Initialize hardware timer
	initializeTimer();
     8e8:	0e 94 ee 08 	call	0x11dc	; 0x11dc <initializeTimer>
	
	delaynms(1000);
     8ec:	88 ee       	ldi	r24, 0xE8	; 232
     8ee:	93 e0       	ldi	r25, 0x03	; 3
     8f0:	0e 94 f4 08 	call	0x11e8	; 0x11e8 <delaynms>
	
	writeHexInt(0x50);
     8f4:	80 e5       	ldi	r24, 0x50	; 80
     8f6:	90 e0       	ldi	r25, 0x00	; 0
     8f8:	0e 94 bf 07 	call	0xf7e	; 0xf7e <writeHexInt>
	
	// Initialize ring buffer
	initRingBuf();
     8fc:	0e 94 c2 05 	call	0xb84	; 0xb84 <initRingBuf>
	
	// Initialize metal queue
	initMetalQueue();
     900:	0e 94 42 05 	call	0xa84	; 0xa84 <initMetalQueue>
	
	writeHexInt(0x51);
     904:	81 e5       	ldi	r24, 0x51	; 81
     906:	90 e0       	ldi	r25, 0x00	; 0
     908:	0e 94 bf 07 	call	0xf7e	; 0xf7e <writeHexInt>
	
	// enable output for stepper and display.
	DDRA = 0xFF;
     90c:	8f ef       	ldi	r24, 0xFF	; 255
     90e:	81 b9       	out	0x01, r24	; 1

	// vector interrupts
	vectorInterrupts();
     910:	0e 94 76 01 	call	0x2ec	; 0x2ec <vectorInterrupts>
	
	writeHexInt(0x52);
     914:	82 e5       	ldi	r24, 0x52	; 82
     916:	90 e0       	ldi	r25, 0x00	; 0
     918:	0e 94 bf 07 	call	0xf7e	; 0xf7e <writeHexInt>

	// init stepper
	initalizeStepper();
     91c:	0e 94 eb 07 	call	0xfd6	; 0xfd6 <initalizeStepper>
	
	writeHexInt(0x53);
     920:	83 e5       	ldi	r24, 0x53	; 83
     922:	90 e0       	ldi	r25, 0x00	; 0
     924:	0e 94 bf 07 	call	0xf7e	; 0xf7e <writeHexInt>

	// zero stepper
	while(steps != 0){
     928:	80 91 b4 01 	lds	r24, 0x01B4
     92c:	90 91 b5 01 	lds	r25, 0x01B5
     930:	00 97       	sbiw	r24, 0x00	; 0
     932:	89 f0       	breq	.+34     	; 0x956 <main+0x78>
		stepTime(20,0);
     934:	84 e1       	ldi	r24, 0x14	; 20
     936:	90 e0       	ldi	r25, 0x00	; 0
     938:	60 e0       	ldi	r22, 0x00	; 0
     93a:	0e 94 ff 07 	call	0xffe	; 0xffe <stepTime>
		writeHexInt(steps);
     93e:	80 91 b4 01 	lds	r24, 0x01B4
     942:	90 91 b5 01 	lds	r25, 0x01B5
     946:	0e 94 bf 07 	call	0xf7e	; 0xf7e <writeHexInt>
	initalizeStepper();
	
	writeHexInt(0x53);

	// zero stepper
	while(steps != 0){
     94a:	80 91 b4 01 	lds	r24, 0x01B4
     94e:	90 91 b5 01 	lds	r25, 0x01B5
     952:	00 97       	sbiw	r24, 0x00	; 0
     954:	79 f7       	brne	.-34     	; 0x934 <main+0x56>
		stepTime(20,0);
		writeHexInt(steps);
	}
	// set steps from zero to 0 and respective position
	steps = BLACK_POSITION;
     956:	10 92 b5 01 	sts	0x01B5, r1
     95a:	10 92 b4 01 	sts	0x01B4, r1
	// reset hall effect check
	hallLow = 0;
     95e:	10 92 b6 01 	sts	0x01B6, r1
	

	setupADC();
     962:	0e 94 6e 00 	call	0xdc	; 0xdc <setupADC>

	// wait one second
	delaynms(1000);
     966:	88 ee       	ldi	r24, 0xE8	; 232
     968:	93 e0       	ldi	r25, 0x03	; 3
     96a:	0e 94 f4 08 	call	0x11e8	; 0x11e8 <delaynms>
	
	// start the motor
	setupMotor();
     96e:	0e 94 10 01 	call	0x220	; 0x220 <setupMotor>
	writeHexInt(0x54);
     972:	84 e5       	ldi	r24, 0x54	; 84
     974:	90 e0       	ldi	r25, 0x00	; 0
     976:	0e 94 bf 07 	call	0xf7e	; 0xf7e <writeHexInt>
	setMotorFwd();
     97a:	0e 94 29 01 	call	0x252	; 0x252 <setMotorFwd>
			delaynms(2000);
		}
		// check the next item off the conveyer belt, rotate to the correct position
		delaynms(100);
		if(bufLength != 0) {
			switch(ringBuf[ringTop].type) {
     97e:	c7 e6       	ldi	r28, 0x67	; 103
     980:	d1 e0       	ldi	r29, 0x01	; 1
     982:	42 c0       	rjmp	.+132    	; 0xa08 <main+0x12a>
	setMotorFwd();
	
	while(1) {
		// pause if we need to
		while(inPause == 1) {
			writeTotal(totalSorted);
     984:	80 91 ae 01 	lds	r24, 0x01AE
     988:	90 91 af 01 	lds	r25, 0x01AF
     98c:	0e 94 ea 06 	call	0xdd4	; 0xdd4 <writeTotal>
			delaynms(2000);
     990:	80 ed       	ldi	r24, 0xD0	; 208
     992:	97 e0       	ldi	r25, 0x07	; 7
     994:	0e 94 f4 08 	call	0x11e8	; 0x11e8 <delaynms>
			if(inPause == 0) break;
     998:	80 91 60 01 	lds	r24, 0x0160
     99c:	88 23       	and	r24, r24
     99e:	c9 f1       	breq	.+114    	; 0xa12 <main+0x134>
			writeWhite(whiteSorted);
     9a0:	80 91 aa 01 	lds	r24, 0x01AA
     9a4:	90 91 ab 01 	lds	r25, 0x01AB
     9a8:	0e 94 7a 07 	call	0xef4	; 0xef4 <writeWhite>
			delaynms(2000);
     9ac:	80 ed       	ldi	r24, 0xD0	; 208
     9ae:	97 e0       	ldi	r25, 0x07	; 7
     9b0:	0e 94 f4 08 	call	0x11e8	; 0x11e8 <delaynms>
			if(inPause == 0) break;
     9b4:	80 91 60 01 	lds	r24, 0x0160
     9b8:	88 23       	and	r24, r24
     9ba:	59 f1       	breq	.+86     	; 0xa12 <main+0x134>
			writeBlack(blackSorted);
     9bc:	80 91 a8 01 	lds	r24, 0x01A8
     9c0:	90 91 a9 01 	lds	r25, 0x01A9
     9c4:	0e 94 56 07 	call	0xeac	; 0xeac <writeBlack>
			delaynms(2000);
     9c8:	80 ed       	ldi	r24, 0xD0	; 208
     9ca:	97 e0       	ldi	r25, 0x07	; 7
     9cc:	0e 94 f4 08 	call	0x11e8	; 0x11e8 <delaynms>
			if(inPause == 0) break;
     9d0:	80 91 60 01 	lds	r24, 0x0160
     9d4:	88 23       	and	r24, r24
     9d6:	e9 f0       	breq	.+58     	; 0xa12 <main+0x134>
			writeSteel(steelSorted);
     9d8:	80 91 a3 01 	lds	r24, 0x01A3
     9dc:	90 91 a4 01 	lds	r25, 0x01A4
     9e0:	0e 94 32 07 	call	0xe64	; 0xe64 <writeSteel>
			delaynms(2000);
     9e4:	80 ed       	ldi	r24, 0xD0	; 208
     9e6:	97 e0       	ldi	r25, 0x07	; 7
     9e8:	0e 94 f4 08 	call	0x11e8	; 0x11e8 <delaynms>
			if(inPause == 0) break;
     9ec:	80 91 60 01 	lds	r24, 0x0160
     9f0:	88 23       	and	r24, r24
     9f2:	79 f0       	breq	.+30     	; 0xa12 <main+0x134>
			writeAluminum(aluminumSorted);
     9f4:	80 91 a5 01 	lds	r24, 0x01A5
     9f8:	90 91 a6 01 	lds	r25, 0x01A6
     9fc:	0e 94 0e 07 	call	0xe1c	; 0xe1c <writeAluminum>
			delaynms(2000);
     a00:	80 ed       	ldi	r24, 0xD0	; 208
     a02:	97 e0       	ldi	r25, 0x07	; 7
     a04:	0e 94 f4 08 	call	0x11e8	; 0x11e8 <delaynms>
	writeHexInt(0x54);
	setMotorFwd();
	
	while(1) {
		// pause if we need to
		while(inPause == 1) {
     a08:	80 91 60 01 	lds	r24, 0x0160
     a0c:	81 30       	cpi	r24, 0x01	; 1
     a0e:	09 f4       	brne	.+2      	; 0xa12 <main+0x134>
     a10:	b9 cf       	rjmp	.-142    	; 0x984 <main+0xa6>
			if(inPause == 0) break;
			writeAluminum(aluminumSorted);
			delaynms(2000);
		}
		// check the next item off the conveyer belt, rotate to the correct position
		delaynms(100);
     a12:	84 e6       	ldi	r24, 0x64	; 100
     a14:	90 e0       	ldi	r25, 0x00	; 0
     a16:	0e 94 f4 08 	call	0x11e8	; 0x11e8 <delaynms>
		if(bufLength != 0) {
     a1a:	80 91 ac 01 	lds	r24, 0x01AC
     a1e:	90 91 ad 01 	lds	r25, 0x01AD
     a22:	00 97       	sbiw	r24, 0x00	; 0
     a24:	89 f3       	breq	.-30     	; 0xa08 <main+0x12a>
			switch(ringBuf[ringTop].type) {
     a26:	80 91 65 01 	lds	r24, 0x0165
     a2a:	90 91 66 01 	lds	r25, 0x0166
     a2e:	fc 01       	movw	r30, r24
     a30:	ee 0f       	add	r30, r30
     a32:	ff 1f       	adc	r31, r31
     a34:	8e 0f       	add	r24, r30
     a36:	9f 1f       	adc	r25, r31
     a38:	fc 01       	movw	r30, r24
     a3a:	ee 0f       	add	r30, r30
     a3c:	ff 1f       	adc	r31, r31
     a3e:	ec 0f       	add	r30, r28
     a40:	fd 1f       	adc	r31, r29
     a42:	80 81       	ld	r24, Z
     a44:	82 30       	cpi	r24, 0x02	; 2
     a46:	79 f0       	breq	.+30     	; 0xa66 <main+0x188>
     a48:	83 30       	cpi	r24, 0x03	; 3
     a4a:	18 f4       	brcc	.+6      	; 0xa52 <main+0x174>
     a4c:	81 30       	cpi	r24, 0x01	; 1
     a4e:	e1 f6       	brne	.-72     	; 0xa08 <main+0x12a>
     a50:	05 c0       	rjmp	.+10     	; 0xa5c <main+0x17e>
     a52:	83 30       	cpi	r24, 0x03	; 3
     a54:	69 f0       	breq	.+26     	; 0xa70 <main+0x192>
     a56:	84 30       	cpi	r24, 0x04	; 4
     a58:	b9 f6       	brne	.-82     	; 0xa08 <main+0x12a>
     a5a:	0f c0       	rjmp	.+30     	; 0xa7a <main+0x19c>
				case BLACK:
					stepperMoveTo(BLACK_POSITION);
     a5c:	80 e0       	ldi	r24, 0x00	; 0
     a5e:	90 e0       	ldi	r25, 0x00	; 0
     a60:	0e 94 aa 08 	call	0x1154	; 0x1154 <stepperMoveTo>
					break;
     a64:	d1 cf       	rjmp	.-94     	; 0xa08 <main+0x12a>
				case WHITE:
					stepperMoveTo(WHITE_POSITION);
     a66:	84 e6       	ldi	r24, 0x64	; 100
     a68:	90 e0       	ldi	r25, 0x00	; 0
     a6a:	0e 94 aa 08 	call	0x1154	; 0x1154 <stepperMoveTo>
					break;
     a6e:	cc cf       	rjmp	.-104    	; 0xa08 <main+0x12a>
				case STEEL:
					stepperMoveTo(STEEL_POSITION);
     a70:	86 e9       	ldi	r24, 0x96	; 150
     a72:	90 e0       	ldi	r25, 0x00	; 0
     a74:	0e 94 aa 08 	call	0x1154	; 0x1154 <stepperMoveTo>
					break;
     a78:	c7 cf       	rjmp	.-114    	; 0xa08 <main+0x12a>
				case ALUMINUM:
					stepperMoveTo(ALUMINUM_POSIITION);
     a7a:	82 e3       	ldi	r24, 0x32	; 50
     a7c:	90 e0       	ldi	r25, 0x00	; 0
     a7e:	0e 94 aa 08 	call	0x1154	; 0x1154 <stepperMoveTo>
					break;
     a82:	c2 cf       	rjmp	.-124    	; 0xa08 <main+0x12a>

00000a84 <initMetalQueue>:

/* void initMetalQueue()
   Purpose: initializes the ring buffer
   */
void initMetalQueue() {
	metalTop = 0;
     a84:	10 92 0b 01 	sts	0x010B, r1
     a88:	10 92 0a 01 	sts	0x010A, r1
	metalBottom = 0;
     a8c:	10 92 0d 01 	sts	0x010D, r1
     a90:	10 92 0c 01 	sts	0x010C, r1
	metalCount = 0;
     a94:	10 92 0f 01 	sts	0x010F, r1
     a98:	10 92 0e 01 	sts	0x010E, r1
	metalQueue[metalTop] = 0;
     a9c:	10 92 11 01 	sts	0x0111, r1
     aa0:	10 92 10 01 	sts	0x0110, r1
}
     aa4:	08 95       	ret

00000aa6 <getMetalOffset>:
   Purpose: gets the index which is an integer offset of the given
   index.
   */
int getMetalOffset(int index, int offset) {
	// case for wrapping around top end
	if((index + offset) > (METAL_QUEUE_SIZE - 1)) {
     aa6:	86 0f       	add	r24, r22
     aa8:	97 1f       	adc	r25, r23
     aaa:	88 32       	cpi	r24, 0x28	; 40
     aac:	91 05       	cpc	r25, r1
     aae:	14 f0       	brlt	.+4      	; 0xab4 <getMetalOffset+0xe>
		return ((index + offset) - METAL_QUEUE_SIZE);
     ab0:	88 97       	sbiw	r24, 0x28	; 40
     ab2:	08 95       	ret
	}
	// case for wrapping around bottom end
	if((index + offset) < 0) {
     ab4:	99 23       	and	r25, r25
     ab6:	0c f4       	brge	.+2      	; 0xaba <getMetalOffset+0x14>
		return ((index + offset) + METAL_QUEUE_SIZE);
     ab8:	88 96       	adiw	r24, 0x28	; 40
	}

	// didn't wrap
	return (index + offset);
     aba:	08 95       	ret

00000abc <popMetal>:
}

/* void popMetal()
   Purpose: pops the top item off the buffer
   */
int popMetal() {
     abc:	0f 93       	push	r16
     abe:	1f 93       	push	r17
     ac0:	cf 93       	push	r28
     ac2:	df 93       	push	r29
	// if the buffer is empty, break
	if (metalCount == 0) return -1;
     ac4:	c0 91 0e 01 	lds	r28, 0x010E
     ac8:	d0 91 0f 01 	lds	r29, 0x010F
     acc:	20 97       	sbiw	r28, 0x00	; 0
     ace:	c9 f0       	breq	.+50     	; 0xb02 <popMetal+0x46>
	int content = metalQueue[metalTop];
     ad0:	80 91 0a 01 	lds	r24, 0x010A
     ad4:	90 91 0b 01 	lds	r25, 0x010B
     ad8:	fc 01       	movw	r30, r24
     ada:	ee 0f       	add	r30, r30
     adc:	ff 1f       	adc	r31, r31
     ade:	e0 5f       	subi	r30, 0xF0	; 240
     ae0:	fe 4f       	sbci	r31, 0xFE	; 254
     ae2:	00 81       	ld	r16, Z
     ae4:	11 81       	ldd	r17, Z+1	; 0x01
	metalTop = getMetalOffset(metalTop, 1);
     ae6:	61 e0       	ldi	r22, 0x01	; 1
     ae8:	70 e0       	ldi	r23, 0x00	; 0
     aea:	0e 94 53 05 	call	0xaa6	; 0xaa6 <getMetalOffset>
     aee:	90 93 0b 01 	sts	0x010B, r25
     af2:	80 93 0a 01 	sts	0x010A, r24
	metalCount--;
     af6:	21 97       	sbiw	r28, 0x01	; 1
     af8:	d0 93 0f 01 	sts	0x010F, r29
     afc:	c0 93 0e 01 	sts	0x010E, r28
	return content;
     b00:	02 c0       	rjmp	.+4      	; 0xb06 <popMetal+0x4a>
/* void popMetal()
   Purpose: pops the top item off the buffer
   */
int popMetal() {
	// if the buffer is empty, break
	if (metalCount == 0) return -1;
     b02:	0f ef       	ldi	r16, 0xFF	; 255
     b04:	1f ef       	ldi	r17, 0xFF	; 255
	int content = metalQueue[metalTop];
	metalTop = getMetalOffset(metalTop, 1);
	metalCount--;
	return content;
}
     b06:	80 2f       	mov	r24, r16
     b08:	91 2f       	mov	r25, r17
     b0a:	df 91       	pop	r29
     b0c:	cf 91       	pop	r28
     b0e:	1f 91       	pop	r17
     b10:	0f 91       	pop	r16
     b12:	08 95       	ret

00000b14 <newMetal>:
}

/* int newMetal()
   Purpose: adds an item to the ring buffer and returns its index
   */
int newMetal(int content) {
     b14:	0f 93       	push	r16
     b16:	1f 93       	push	r17
     b18:	cf 93       	push	r28
     b1a:	df 93       	push	r29
     b1c:	8c 01       	movw	r16, r24
	// if bottom is lagging behind top, reset bottom
	if(metalCount==0) metalBottom = metalTop;
     b1e:	c0 91 0e 01 	lds	r28, 0x010E
     b22:	d0 91 0f 01 	lds	r29, 0x010F
     b26:	20 97       	sbiw	r28, 0x00	; 0
     b28:	49 f4       	brne	.+18     	; 0xb3c <newMetal+0x28>
     b2a:	80 91 0a 01 	lds	r24, 0x010A
     b2e:	90 91 0b 01 	lds	r25, 0x010B
     b32:	90 93 0d 01 	sts	0x010D, r25
     b36:	80 93 0c 01 	sts	0x010C, r24
     b3a:	0f c0       	rjmp	.+30     	; 0xb5a <newMetal+0x46>
	// this next line is for cases when queue is not empty
	if(metalCount > 0) metalBottom = getMetalOffset(metalBottom, 1);
     b3c:	1c 16       	cp	r1, r28
     b3e:	1d 06       	cpc	r1, r29
     b40:	64 f4       	brge	.+24     	; 0xb5a <newMetal+0x46>
     b42:	80 91 0c 01 	lds	r24, 0x010C
     b46:	90 91 0d 01 	lds	r25, 0x010D
     b4a:	61 e0       	ldi	r22, 0x01	; 1
     b4c:	70 e0       	ldi	r23, 0x00	; 0
     b4e:	0e 94 53 05 	call	0xaa6	; 0xaa6 <getMetalOffset>
     b52:	90 93 0d 01 	sts	0x010D, r25
     b56:	80 93 0c 01 	sts	0x010C, r24
	metalCount++;
     b5a:	21 96       	adiw	r28, 0x01	; 1
     b5c:	d0 93 0f 01 	sts	0x010F, r29
     b60:	c0 93 0e 01 	sts	0x010E, r28
	metalQueue[metalBottom] = content;
     b64:	80 91 0c 01 	lds	r24, 0x010C
     b68:	90 91 0d 01 	lds	r25, 0x010D
     b6c:	fc 01       	movw	r30, r24
     b6e:	ee 0f       	add	r30, r30
     b70:	ff 1f       	adc	r31, r31
     b72:	e0 5f       	subi	r30, 0xF0	; 240
     b74:	fe 4f       	sbci	r31, 0xFE	; 254
     b76:	11 83       	std	Z+1, r17	; 0x01
     b78:	00 83       	st	Z, r16
	return metalBottom;
}
     b7a:	df 91       	pop	r29
     b7c:	cf 91       	pop	r28
     b7e:	1f 91       	pop	r17
     b80:	0f 91       	pop	r16
     b82:	08 95       	ret

00000b84 <initRingBuf>:

/* void initRingBuf()
   Purpose: initializes the ring buffer
   */
void initRingBuf() {
	ringTop = 0;
     b84:	10 92 66 01 	sts	0x0166, r1
     b88:	10 92 65 01 	sts	0x0165, r1
	ringBottom = 0;
     b8c:	10 92 62 01 	sts	0x0162, r1
     b90:	10 92 61 01 	sts	0x0161, r1
	currentMetal = -1;
     b94:	8f ef       	ldi	r24, 0xFF	; 255
     b96:	9f ef       	ldi	r25, 0xFF	; 255
     b98:	90 93 b1 01 	sts	0x01B1, r25
     b9c:	80 93 b0 01 	sts	0x01B0, r24
	currentRefl = 0;
     ba0:	10 92 64 01 	sts	0x0164, r1
     ba4:	10 92 63 01 	sts	0x0163, r1
	bufLength = 0;
     ba8:	10 92 ad 01 	sts	0x01AD, r1
     bac:	10 92 ac 01 	sts	0x01AC, r1
	inPause = 0;
     bb0:	10 92 60 01 	sts	0x0160, r1
	shutdown = 0;
     bb4:	10 92 a7 01 	sts	0x01A7, r1
	
	totalSorted = 0;
     bb8:	10 92 af 01 	sts	0x01AF, r1
     bbc:	10 92 ae 01 	sts	0x01AE, r1
	whiteSorted = 0;
     bc0:	10 92 ab 01 	sts	0x01AB, r1
     bc4:	10 92 aa 01 	sts	0x01AA, r1
	blackSorted = 0;
     bc8:	10 92 a9 01 	sts	0x01A9, r1
     bcc:	10 92 a8 01 	sts	0x01A8, r1
	steelSorted = 0;
     bd0:	10 92 a4 01 	sts	0x01A4, r1
     bd4:	10 92 a3 01 	sts	0x01A3, r1
	aluminumSorted = 0;
     bd8:	10 92 a6 01 	sts	0x01A6, r1
     bdc:	10 92 a5 01 	sts	0x01A5, r1
}
     be0:	08 95       	ret

00000be2 <getBufOffset>:
   Purpose: gets the index which is an integer offset of the given
   index.
   */
int getBufOffset(int index, int offset) {
	// case for wrapping around top end
	if((index + offset) > (RING_BUF_SIZE - 1)) {
     be2:	86 0f       	add	r24, r22
     be4:	97 1f       	adc	r25, r23
     be6:	8a 30       	cpi	r24, 0x0A	; 10
     be8:	91 05       	cpc	r25, r1
     bea:	14 f0       	brlt	.+4      	; 0xbf0 <getBufOffset+0xe>
		return ((index + offset) - RING_BUF_SIZE);
     bec:	0a 97       	sbiw	r24, 0x0a	; 10
     bee:	08 95       	ret
	}
	// case for wrapping around bottom end
	if((index + offset) < 0) {
     bf0:	99 23       	and	r25, r25
     bf2:	0c f4       	brge	.+2      	; 0xbf6 <getBufOffset+0x14>
		return ((index + offset) + RING_BUF_SIZE);
     bf4:	0a 96       	adiw	r24, 0x0a	; 10
	}

	// didn't wrap
	return (index + offset);
     bf6:	08 95       	ret

00000bf8 <popBuf>:
}

/* void popBuf()
   Purpose: pops the top item off the buffer
   */
void popBuf() {
     bf8:	cf 93       	push	r28
     bfa:	df 93       	push	r29
	// if the buffer is empty, break
	if (bufLength == 0) return;
     bfc:	c0 91 ac 01 	lds	r28, 0x01AC
     c00:	d0 91 ad 01 	lds	r29, 0x01AD
     c04:	20 97       	sbiw	r28, 0x00	; 0
     c06:	c9 f0       	breq	.+50     	; 0xc3a <popBuf+0x42>
	ringTop = getBufOffset(ringTop, 1);
     c08:	80 91 65 01 	lds	r24, 0x0165
     c0c:	90 91 66 01 	lds	r25, 0x0166
     c10:	61 e0       	ldi	r22, 0x01	; 1
     c12:	70 e0       	ldi	r23, 0x00	; 0
     c14:	0e 94 f1 05 	call	0xbe2	; 0xbe2 <getBufOffset>
     c18:	90 93 66 01 	sts	0x0166, r25
     c1c:	80 93 65 01 	sts	0x0165, r24
	bufLength--;
     c20:	21 97       	sbiw	r28, 0x01	; 1
     c22:	d0 93 ad 01 	sts	0x01AD, r29
     c26:	c0 93 ac 01 	sts	0x01AC, r28
	if((bufLength == 0) && (shutdown == 1)) {
     c2a:	20 97       	sbiw	r28, 0x00	; 0
     c2c:	31 f4       	brne	.+12     	; 0xc3a <popBuf+0x42>
     c2e:	80 91 a7 01 	lds	r24, 0x01A7
     c32:	81 30       	cpi	r24, 0x01	; 1
     c34:	11 f4       	brne	.+4      	; 0xc3a <popBuf+0x42>
		shutdownHandler();
     c36:	0e 94 21 03 	call	0x642	; 0x642 <shutdownHandler>
	}
}
     c3a:	df 91       	pop	r29
     c3c:	cf 91       	pop	r28
     c3e:	08 95       	ret

00000c40 <newRingBufItem>:
}

/* int newRingBufItem()
   Purpose: adds an item to the ring buffer and returns its index
   */
int newRingBufItem() {
     c40:	cf 93       	push	r28
     c42:	df 93       	push	r29
	// if bottom is lagging behind top, reset bottom
	if(bufLength==0) ringBottom = ringTop;
     c44:	c0 91 ac 01 	lds	r28, 0x01AC
     c48:	d0 91 ad 01 	lds	r29, 0x01AD
     c4c:	20 97       	sbiw	r28, 0x00	; 0
     c4e:	49 f4       	brne	.+18     	; 0xc62 <newRingBufItem+0x22>
     c50:	80 91 65 01 	lds	r24, 0x0165
     c54:	90 91 66 01 	lds	r25, 0x0166
     c58:	90 93 62 01 	sts	0x0162, r25
     c5c:	80 93 61 01 	sts	0x0161, r24
     c60:	0f c0       	rjmp	.+30     	; 0xc80 <newRingBufItem+0x40>
	// this next line is for cases when queue is not empty
	if(bufLength > 0) ringBottom = getBufOffset(ringBottom, 1);
     c62:	1c 16       	cp	r1, r28
     c64:	1d 06       	cpc	r1, r29
     c66:	64 f4       	brge	.+24     	; 0xc80 <newRingBufItem+0x40>
     c68:	80 91 61 01 	lds	r24, 0x0161
     c6c:	90 91 62 01 	lds	r25, 0x0162
     c70:	61 e0       	ldi	r22, 0x01	; 1
     c72:	70 e0       	ldi	r23, 0x00	; 0
     c74:	0e 94 f1 05 	call	0xbe2	; 0xbe2 <getBufOffset>
     c78:	90 93 62 01 	sts	0x0162, r25
     c7c:	80 93 61 01 	sts	0x0161, r24
	bufLength++;
     c80:	21 96       	adiw	r28, 0x01	; 1
     c82:	d0 93 ad 01 	sts	0x01AD, r29
     c86:	c0 93 ac 01 	sts	0x01AC, r28
	ringBuf[ringBottom].minRefl = 1024;
     c8a:	80 91 61 01 	lds	r24, 0x0161
     c8e:	90 91 62 01 	lds	r25, 0x0162
     c92:	fc 01       	movw	r30, r24
     c94:	ee 0f       	add	r30, r30
     c96:	ff 1f       	adc	r31, r31
     c98:	e8 0f       	add	r30, r24
     c9a:	f9 1f       	adc	r31, r25
     c9c:	ee 0f       	add	r30, r30
     c9e:	ff 1f       	adc	r31, r31
     ca0:	e9 59       	subi	r30, 0x99	; 153
     ca2:	fe 4f       	sbci	r31, 0xFE	; 254
     ca4:	20 e0       	ldi	r18, 0x00	; 0
     ca6:	34 e0       	ldi	r19, 0x04	; 4
     ca8:	33 83       	std	Z+3, r19	; 0x03
     caa:	22 83       	std	Z+2, r18	; 0x02
	ringBuf[ringBottom].reflSamples = 0;
     cac:	15 82       	std	Z+5, r1	; 0x05
     cae:	14 82       	std	Z+4, r1	; 0x04
	ringBuf[ringBottom].metal = 0;
     cb0:	11 82       	std	Z+1, r1	; 0x01
	ringBuf[ringBottom].type = UNDEF;
     cb2:	10 82       	st	Z, r1
	return ringBottom;
}
     cb4:	df 91       	pop	r29
     cb6:	cf 91       	pop	r28
     cb8:	08 95       	ret

00000cba <getPatFomHex>:
   Purpose: looks up the appropriate pattern for 
   the seven segment display for a given number.
   If input is not between 0-F, returns blank pattern
   */
char getPatFomHex(char number) {
	switch(number) {
     cba:	87 30       	cpi	r24, 0x07	; 7
     cbc:	71 f1       	breq	.+92     	; 0xd1a <getPatFomHex+0x60>
     cbe:	88 30       	cpi	r24, 0x08	; 8
     cc0:	70 f4       	brcc	.+28     	; 0xcde <getPatFomHex+0x24>
     cc2:	83 30       	cpi	r24, 0x03	; 3
     cc4:	11 f1       	breq	.+68     	; 0xd0a <getPatFomHex+0x50>
     cc6:	84 30       	cpi	r24, 0x04	; 4
     cc8:	28 f4       	brcc	.+10     	; 0xcd4 <getPatFomHex+0x1a>
     cca:	81 30       	cpi	r24, 0x01	; 1
     ccc:	d1 f1       	breq	.+116    	; 0xd42 <getPatFomHex+0x88>
     cce:	82 30       	cpi	r24, 0x02	; 2
     cd0:	d0 f4       	brcc	.+52     	; 0xd06 <getPatFomHex+0x4c>
     cd2:	17 c0       	rjmp	.+46     	; 0xd02 <getPatFomHex+0x48>
     cd4:	85 30       	cpi	r24, 0x05	; 5
     cd6:	e9 f0       	breq	.+58     	; 0xd12 <getPatFomHex+0x58>
     cd8:	86 30       	cpi	r24, 0x06	; 6
     cda:	e8 f4       	brcc	.+58     	; 0xd16 <getPatFomHex+0x5c>
     cdc:	18 c0       	rjmp	.+48     	; 0xd0e <getPatFomHex+0x54>
     cde:	8b 30       	cpi	r24, 0x0B	; 11
     ce0:	21 f1       	breq	.+72     	; 0xd2a <getPatFomHex+0x70>
     ce2:	8c 30       	cpi	r24, 0x0C	; 12
     ce4:	28 f4       	brcc	.+10     	; 0xcf0 <getPatFomHex+0x36>
     ce6:	89 30       	cpi	r24, 0x09	; 9
     ce8:	e1 f0       	breq	.+56     	; 0xd22 <getPatFomHex+0x68>
     cea:	8a 30       	cpi	r24, 0x0A	; 10
     cec:	e0 f4       	brcc	.+56     	; 0xd26 <getPatFomHex+0x6c>
     cee:	17 c0       	rjmp	.+46     	; 0xd1e <getPatFomHex+0x64>
     cf0:	8d 30       	cpi	r24, 0x0D	; 13
     cf2:	f9 f0       	breq	.+62     	; 0xd32 <getPatFomHex+0x78>
     cf4:	8d 30       	cpi	r24, 0x0D	; 13
     cf6:	d8 f0       	brcs	.+54     	; 0xd2e <getPatFomHex+0x74>
     cf8:	8e 30       	cpi	r24, 0x0E	; 14
     cfa:	e9 f0       	breq	.+58     	; 0xd36 <getPatFomHex+0x7c>
     cfc:	8f 30       	cpi	r24, 0x0F	; 15
     cfe:	f9 f4       	brne	.+62     	; 0xd3e <getPatFomHex+0x84>
     d00:	1c c0       	rjmp	.+56     	; 0xd3a <getPatFomHex+0x80>
		case 0:
			return 0b11111100;
     d02:	8c ef       	ldi	r24, 0xFC	; 252
     d04:	08 95       	ret
			break;
		case 1:
			return 0b01100000;
			break;
		case 2:
			return 0b11011010;
     d06:	8a ed       	ldi	r24, 0xDA	; 218
     d08:	08 95       	ret
			break;
		case 3:
			return 0b11110010;
     d0a:	82 ef       	ldi	r24, 0xF2	; 242
     d0c:	08 95       	ret
			break;
		case 4:
			return 0b01100110;
     d0e:	86 e6       	ldi	r24, 0x66	; 102
     d10:	08 95       	ret
			break;
		case 5:
			return 0b10110110;
     d12:	86 eb       	ldi	r24, 0xB6	; 182
     d14:	08 95       	ret
			break;
		case 6:
			return 0b10111110;
     d16:	8e eb       	ldi	r24, 0xBE	; 190
     d18:	08 95       	ret
			break;
		case 7:
			return 0b11100000;
     d1a:	80 ee       	ldi	r24, 0xE0	; 224
     d1c:	08 95       	ret
			break;
		case 8:
			return 0b11111110;
     d1e:	8e ef       	ldi	r24, 0xFE	; 254
     d20:	08 95       	ret
			break;
		case 9:
			return 0b11100110;
     d22:	86 ee       	ldi	r24, 0xE6	; 230
     d24:	08 95       	ret
			break;
		case 10:
			return 0b11101110;
     d26:	8e ee       	ldi	r24, 0xEE	; 238
     d28:	08 95       	ret
			break;
		case 11:
			return 0b00111110;
     d2a:	8e e3       	ldi	r24, 0x3E	; 62
     d2c:	08 95       	ret
			break;
		case 12:
			return 0b10011100;
     d2e:	8c e9       	ldi	r24, 0x9C	; 156
     d30:	08 95       	ret
			break;
		case 13:
			return 0b01111010;
     d32:	8a e7       	ldi	r24, 0x7A	; 122
     d34:	08 95       	ret
			break;
		case 14:
			return 0b10011110;
     d36:	8e e9       	ldi	r24, 0x9E	; 158
     d38:	08 95       	ret
			break;
		case 15:
			return 0b10001110;
     d3a:	8e e8       	ldi	r24, 0x8E	; 142
     d3c:	08 95       	ret
		default:
			break;			
	}
	return 0x00;
     d3e:	80 e0       	ldi	r24, 0x00	; 0
     d40:	08 95       	ret
	switch(number) {
		case 0:
			return 0b11111100;
			break;
		case 1:
			return 0b01100000;
     d42:	80 e6       	ldi	r24, 0x60	; 96
			return 0b10001110;
		default:
			break;			
	}
	return 0x00;
}
     d44:	08 95       	ret

00000d46 <writePattern>:
/* void writePattern(char pattern)
   Purpose: Bit-bangs out an integer over
   the serial interface to the display
   */
void writePattern(char pattern) {
	for (int i=0; i<8; i++) {
     d46:	20 e0       	ldi	r18, 0x00	; 0
     d48:	30 e0       	ldi	r19, 0x00	; 0
		// assert the data
		char databit = 0x01 & (pattern >> i);
     d4a:	90 e0       	ldi	r25, 0x00	; 0
		PORTA = (PORTA & 0b10111111) | (databit << 6);
     d4c:	62 b1       	in	r22, 0x02	; 2
   the serial interface to the display
   */
void writePattern(char pattern) {
	for (int i=0; i<8; i++) {
		// assert the data
		char databit = 0x01 & (pattern >> i);
     d4e:	ac 01       	movw	r20, r24
     d50:	02 2e       	mov	r0, r18
     d52:	02 c0       	rjmp	.+4      	; 0xd58 <writePattern+0x12>
     d54:	55 95       	asr	r21
     d56:	47 95       	ror	r20
     d58:	0a 94       	dec	r0
     d5a:	e2 f7       	brpl	.-8      	; 0xd54 <writePattern+0xe>
     d5c:	41 70       	andi	r20, 0x01	; 1
		PORTA = (PORTA & 0b10111111) | (databit << 6);
     d5e:	42 95       	swap	r20
     d60:	44 0f       	add	r20, r20
     d62:	44 0f       	add	r20, r20
     d64:	40 7c       	andi	r20, 0xC0	; 192
     d66:	56 2f       	mov	r21, r22
     d68:	5f 7b       	andi	r21, 0xBF	; 191
     d6a:	45 2b       	or	r20, r21
     d6c:	42 b9       	out	0x02, r20	; 2
		// rising edge
		PORTA = (PORTA & 0b01111111) | 0b10000000;
     d6e:	17 9a       	sbi	0x02, 7	; 2
		// falling edge
		PORTA = (PORTA & 0b01111111);
     d70:	17 98       	cbi	0x02, 7	; 2
/* void writePattern(char pattern)
   Purpose: Bit-bangs out an integer over
   the serial interface to the display
   */
void writePattern(char pattern) {
	for (int i=0; i<8; i++) {
     d72:	2f 5f       	subi	r18, 0xFF	; 255
     d74:	3f 4f       	sbci	r19, 0xFF	; 255
     d76:	28 30       	cpi	r18, 0x08	; 8
     d78:	31 05       	cpc	r19, r1
     d7a:	41 f7       	brne	.-48     	; 0xd4c <writePattern+0x6>
		// rising edge
		PORTA = (PORTA & 0b01111111) | 0b10000000;
		// falling edge
		PORTA = (PORTA & 0b01111111);
	}
}
     d7c:	08 95       	ret

00000d7e <writeError>:

/* void writeError(int code)
   Purpose: displays "ErrXX" on the 
   display, where XX is the hex representation of the integer
   */
void writeError(int code) {
     d7e:	cf 93       	push	r28
     d80:	df 93       	push	r29
     d82:	ec 01       	movw	r28, r24
	// write the error code
	for (int i=0; i < 2; i++) {
		writePattern(getPatFomHex(code % 16));
     d84:	60 e1       	ldi	r22, 0x10	; 16
     d86:	70 e0       	ldi	r23, 0x00	; 0
     d88:	0e 94 15 09 	call	0x122a	; 0x122a <__divmodhi4>
     d8c:	0e 94 5d 06 	call	0xcba	; 0xcba <getPatFomHex>
     d90:	0e 94 a3 06 	call	0xd46	; 0xd46 <writePattern>
		code = code / 16;
     d94:	ce 01       	movw	r24, r28
     d96:	dd 23       	and	r29, r29
     d98:	0c f4       	brge	.+2      	; 0xd9c <writeError+0x1e>
     d9a:	0f 96       	adiw	r24, 0x0f	; 15
     d9c:	95 95       	asr	r25
     d9e:	87 95       	ror	r24
     da0:	95 95       	asr	r25
     da2:	87 95       	ror	r24
     da4:	95 95       	asr	r25
     da6:	87 95       	ror	r24
     da8:	95 95       	asr	r25
     daa:	87 95       	ror	r24
   display, where XX is the hex representation of the integer
   */
void writeError(int code) {
	// write the error code
	for (int i=0; i < 2; i++) {
		writePattern(getPatFomHex(code % 16));
     dac:	60 e1       	ldi	r22, 0x10	; 16
     dae:	70 e0       	ldi	r23, 0x00	; 0
     db0:	0e 94 15 09 	call	0x122a	; 0x122a <__divmodhi4>
     db4:	0e 94 5d 06 	call	0xcba	; 0xcba <getPatFomHex>
     db8:	0e 94 a3 06 	call	0xd46	; 0xd46 <writePattern>
		code = code / 16;
	}
	// write "r"
	writePattern(0b00001010);
     dbc:	8a e0       	ldi	r24, 0x0A	; 10
     dbe:	0e 94 a3 06 	call	0xd46	; 0xd46 <writePattern>
	// write "r"
	writePattern(0b00001010);
     dc2:	8a e0       	ldi	r24, 0x0A	; 10
     dc4:	0e 94 a3 06 	call	0xd46	; 0xd46 <writePattern>
	// write "E"
	writePattern(0b10011110);
     dc8:	8e e9       	ldi	r24, 0x9E	; 158
     dca:	0e 94 a3 06 	call	0xd46	; 0xd46 <writePattern>
}
     dce:	df 91       	pop	r29
     dd0:	cf 91       	pop	r28
     dd2:	08 95       	ret

00000dd4 <writeTotal>:
/* void writeTotal(int count)
   Purpose: displays "totXX" on the 
   display, where XX is the decimal
   representation of the integer
   */
void writeTotal(int count) {
     dd4:	0f 93       	push	r16
     dd6:	1f 93       	push	r17
     dd8:	cf 93       	push	r28
     dda:	df 93       	push	r29
	// write the count
	for (int i=0; i < 2; i++) {
		writePattern(getPatFomHex(count % 10));
     ddc:	ca e0       	ldi	r28, 0x0A	; 10
     dde:	d0 e0       	ldi	r29, 0x00	; 0
     de0:	be 01       	movw	r22, r28
     de2:	0e 94 15 09 	call	0x122a	; 0x122a <__divmodhi4>
     de6:	8b 01       	movw	r16, r22
     de8:	0e 94 5d 06 	call	0xcba	; 0xcba <getPatFomHex>
     dec:	0e 94 a3 06 	call	0xd46	; 0xd46 <writePattern>
     df0:	c8 01       	movw	r24, r16
     df2:	be 01       	movw	r22, r28
     df4:	0e 94 15 09 	call	0x122a	; 0x122a <__divmodhi4>
     df8:	0e 94 5d 06 	call	0xcba	; 0xcba <getPatFomHex>
     dfc:	0e 94 a3 06 	call	0xd46	; 0xd46 <writePattern>
		count = count / 10;
	}
	// write "t"
	writePattern(0b00011110);
     e00:	8e e1       	ldi	r24, 0x1E	; 30
     e02:	0e 94 a3 06 	call	0xd46	; 0xd46 <writePattern>
	// write "o"
	writePattern(0b00111010);
     e06:	8a e3       	ldi	r24, 0x3A	; 58
     e08:	0e 94 a3 06 	call	0xd46	; 0xd46 <writePattern>
	// write "t"
	writePattern(0b00011110);
     e0c:	8e e1       	ldi	r24, 0x1E	; 30
     e0e:	0e 94 a3 06 	call	0xd46	; 0xd46 <writePattern>
}
     e12:	df 91       	pop	r29
     e14:	cf 91       	pop	r28
     e16:	1f 91       	pop	r17
     e18:	0f 91       	pop	r16
     e1a:	08 95       	ret

00000e1c <writeAluminum>:
/* void writeAluminum(int count)
   Purpose: displays "ALUXX" on the 
   display, where XX is the decimal
   representation of the integer
   */
void writeAluminum(int count) {
     e1c:	0f 93       	push	r16
     e1e:	1f 93       	push	r17
     e20:	cf 93       	push	r28
     e22:	df 93       	push	r29
	// write the count
	for (int i=0; i < 2; i++) {
		writePattern(getPatFomHex(count % 10));
     e24:	ca e0       	ldi	r28, 0x0A	; 10
     e26:	d0 e0       	ldi	r29, 0x00	; 0
     e28:	be 01       	movw	r22, r28
     e2a:	0e 94 15 09 	call	0x122a	; 0x122a <__divmodhi4>
     e2e:	8b 01       	movw	r16, r22
     e30:	0e 94 5d 06 	call	0xcba	; 0xcba <getPatFomHex>
     e34:	0e 94 a3 06 	call	0xd46	; 0xd46 <writePattern>
     e38:	c8 01       	movw	r24, r16
     e3a:	be 01       	movw	r22, r28
     e3c:	0e 94 15 09 	call	0x122a	; 0x122a <__divmodhi4>
     e40:	0e 94 5d 06 	call	0xcba	; 0xcba <getPatFomHex>
     e44:	0e 94 a3 06 	call	0xd46	; 0xd46 <writePattern>
		count = count / 10;
	}
	// write "U"
	writePattern(0b01111100);
     e48:	8c e7       	ldi	r24, 0x7C	; 124
     e4a:	0e 94 a3 06 	call	0xd46	; 0xd46 <writePattern>
	// write "L"
	writePattern(0b00011100);
     e4e:	8c e1       	ldi	r24, 0x1C	; 28
     e50:	0e 94 a3 06 	call	0xd46	; 0xd46 <writePattern>
	// write "A"
	writePattern(0b11101110);
     e54:	8e ee       	ldi	r24, 0xEE	; 238
     e56:	0e 94 a3 06 	call	0xd46	; 0xd46 <writePattern>
}
     e5a:	df 91       	pop	r29
     e5c:	cf 91       	pop	r28
     e5e:	1f 91       	pop	r17
     e60:	0f 91       	pop	r16
     e62:	08 95       	ret

00000e64 <writeSteel>:
/* void writeSteel(int count)
   Purpose: displays "StLXX" on the 
   display, where XX is the decimal
   representation of the integer
   */
void writeSteel(int count) {
     e64:	0f 93       	push	r16
     e66:	1f 93       	push	r17
     e68:	cf 93       	push	r28
     e6a:	df 93       	push	r29
	// write the count
	for (int i=0; i < 2; i++) {
		writePattern(getPatFomHex(count % 10));
     e6c:	ca e0       	ldi	r28, 0x0A	; 10
     e6e:	d0 e0       	ldi	r29, 0x00	; 0
     e70:	be 01       	movw	r22, r28
     e72:	0e 94 15 09 	call	0x122a	; 0x122a <__divmodhi4>
     e76:	8b 01       	movw	r16, r22
     e78:	0e 94 5d 06 	call	0xcba	; 0xcba <getPatFomHex>
     e7c:	0e 94 a3 06 	call	0xd46	; 0xd46 <writePattern>
     e80:	c8 01       	movw	r24, r16
     e82:	be 01       	movw	r22, r28
     e84:	0e 94 15 09 	call	0x122a	; 0x122a <__divmodhi4>
     e88:	0e 94 5d 06 	call	0xcba	; 0xcba <getPatFomHex>
     e8c:	0e 94 a3 06 	call	0xd46	; 0xd46 <writePattern>
		count = count / 10;
	}
	// write "L"
	writePattern(0b00011100);
     e90:	8c e1       	ldi	r24, 0x1C	; 28
     e92:	0e 94 a3 06 	call	0xd46	; 0xd46 <writePattern>
	// write "t"
	writePattern(0b00011110);
     e96:	8e e1       	ldi	r24, 0x1E	; 30
     e98:	0e 94 a3 06 	call	0xd46	; 0xd46 <writePattern>
	// write "S"
	writePattern(0b10110110);
     e9c:	86 eb       	ldi	r24, 0xB6	; 182
     e9e:	0e 94 a3 06 	call	0xd46	; 0xd46 <writePattern>
}
     ea2:	df 91       	pop	r29
     ea4:	cf 91       	pop	r28
     ea6:	1f 91       	pop	r17
     ea8:	0f 91       	pop	r16
     eaa:	08 95       	ret

00000eac <writeBlack>:
/* void writeBlack(int count)
   Purpose: displays "bLAXX" on the 
   display, where XX is the decimal
   representation of the integer
   */
void writeBlack(int count) {
     eac:	0f 93       	push	r16
     eae:	1f 93       	push	r17
     eb0:	cf 93       	push	r28
     eb2:	df 93       	push	r29
	// write the count
	for (int i=0; i < 2; i++) {
		writePattern(getPatFomHex(count % 10));
     eb4:	ca e0       	ldi	r28, 0x0A	; 10
     eb6:	d0 e0       	ldi	r29, 0x00	; 0
     eb8:	be 01       	movw	r22, r28
     eba:	0e 94 15 09 	call	0x122a	; 0x122a <__divmodhi4>
     ebe:	8b 01       	movw	r16, r22
     ec0:	0e 94 5d 06 	call	0xcba	; 0xcba <getPatFomHex>
     ec4:	0e 94 a3 06 	call	0xd46	; 0xd46 <writePattern>
     ec8:	c8 01       	movw	r24, r16
     eca:	be 01       	movw	r22, r28
     ecc:	0e 94 15 09 	call	0x122a	; 0x122a <__divmodhi4>
     ed0:	0e 94 5d 06 	call	0xcba	; 0xcba <getPatFomHex>
     ed4:	0e 94 a3 06 	call	0xd46	; 0xd46 <writePattern>
		count = count / 10;
	}
	// write "A"
	writePattern(0b11101110);
     ed8:	8e ee       	ldi	r24, 0xEE	; 238
     eda:	0e 94 a3 06 	call	0xd46	; 0xd46 <writePattern>
	// write "L"
	writePattern(0b00011100);
     ede:	8c e1       	ldi	r24, 0x1C	; 28
     ee0:	0e 94 a3 06 	call	0xd46	; 0xd46 <writePattern>
	// write "b"
	writePattern(0b00111110);
     ee4:	8e e3       	ldi	r24, 0x3E	; 62
     ee6:	0e 94 a3 06 	call	0xd46	; 0xd46 <writePattern>
}
     eea:	df 91       	pop	r29
     eec:	cf 91       	pop	r28
     eee:	1f 91       	pop	r17
     ef0:	0f 91       	pop	r16
     ef2:	08 95       	ret

00000ef4 <writeWhite>:
/* void writeWhite(int count)
   Purpose: displays "LtEXX" on the 
   display, where XX is the decimal
   representation of the integer
   */
void writeWhite(int count) {
     ef4:	0f 93       	push	r16
     ef6:	1f 93       	push	r17
     ef8:	cf 93       	push	r28
     efa:	df 93       	push	r29
	// write the count
	for (int i=0; i < 2; i++) {
		writePattern(getPatFomHex(count % 10));
     efc:	ca e0       	ldi	r28, 0x0A	; 10
     efe:	d0 e0       	ldi	r29, 0x00	; 0
     f00:	be 01       	movw	r22, r28
     f02:	0e 94 15 09 	call	0x122a	; 0x122a <__divmodhi4>
     f06:	8b 01       	movw	r16, r22
     f08:	0e 94 5d 06 	call	0xcba	; 0xcba <getPatFomHex>
     f0c:	0e 94 a3 06 	call	0xd46	; 0xd46 <writePattern>
     f10:	c8 01       	movw	r24, r16
     f12:	be 01       	movw	r22, r28
     f14:	0e 94 15 09 	call	0x122a	; 0x122a <__divmodhi4>
     f18:	0e 94 5d 06 	call	0xcba	; 0xcba <getPatFomHex>
     f1c:	0e 94 a3 06 	call	0xd46	; 0xd46 <writePattern>
		count = count / 10;
	}
	// write "E"
	writePattern(0b10011110);
     f20:	8e e9       	ldi	r24, 0x9E	; 158
     f22:	0e 94 a3 06 	call	0xd46	; 0xd46 <writePattern>
	// write "t"
	writePattern(0b00011110);
     f26:	8e e1       	ldi	r24, 0x1E	; 30
     f28:	0e 94 a3 06 	call	0xd46	; 0xd46 <writePattern>
	// write "L"
	writePattern(0b00011100);
     f2c:	8c e1       	ldi	r24, 0x1C	; 28
     f2e:	0e 94 a3 06 	call	0xd46	; 0xd46 <writePattern>
}
     f32:	df 91       	pop	r29
     f34:	cf 91       	pop	r28
     f36:	1f 91       	pop	r17
     f38:	0f 91       	pop	r16
     f3a:	08 95       	ret

00000f3c <writeDecInt>:

/* void writeDecInt(int number)
   Purpose: fills the seven segment display with
   an integer number, formatted as decimal.
   */
void writeDecInt(int number) {
     f3c:	ef 92       	push	r14
     f3e:	ff 92       	push	r15
     f40:	0f 93       	push	r16
     f42:	1f 93       	push	r17
     f44:	cf 93       	push	r28
     f46:	df 93       	push	r29
     f48:	c5 e0       	ldi	r28, 0x05	; 5
     f4a:	d0 e0       	ldi	r29, 0x00	; 0
	for (int i=0; i < DISPLAY_DIGITS; i++) {
		writePattern(getPatFomHex(number % 10));
     f4c:	0f 2e       	mov	r0, r31
     f4e:	fa e0       	ldi	r31, 0x0A	; 10
     f50:	ef 2e       	mov	r14, r31
     f52:	ff 24       	eor	r15, r15
     f54:	f0 2d       	mov	r31, r0
     f56:	b7 01       	movw	r22, r14
     f58:	0e 94 15 09 	call	0x122a	; 0x122a <__divmodhi4>
     f5c:	16 2f       	mov	r17, r22
     f5e:	07 2f       	mov	r16, r23
     f60:	0e 94 5d 06 	call	0xcba	; 0xcba <getPatFomHex>
     f64:	0e 94 a3 06 	call	0xd46	; 0xd46 <writePattern>
		number = number / 10;
     f68:	81 2f       	mov	r24, r17
     f6a:	90 2f       	mov	r25, r16
     f6c:	21 97       	sbiw	r28, 0x01	; 1
/* void writeDecInt(int number)
   Purpose: fills the seven segment display with
   an integer number, formatted as decimal.
   */
void writeDecInt(int number) {
	for (int i=0; i < DISPLAY_DIGITS; i++) {
     f6e:	99 f7       	brne	.-26     	; 0xf56 <writeDecInt+0x1a>
		writePattern(getPatFomHex(number % 10));
		number = number / 10;
	}
}
     f70:	df 91       	pop	r29
     f72:	cf 91       	pop	r28
     f74:	1f 91       	pop	r17
     f76:	0f 91       	pop	r16
     f78:	ff 90       	pop	r15
     f7a:	ef 90       	pop	r14
     f7c:	08 95       	ret

00000f7e <writeHexInt>:

/* void writeHexInt(int number)
   Purpose: fills the seven segment display with
   an integer number, formatted as hexadecimal.
   */
void writeHexInt(int number) {
     f7e:	ef 92       	push	r14
     f80:	ff 92       	push	r15
     f82:	0f 93       	push	r16
     f84:	1f 93       	push	r17
     f86:	cf 93       	push	r28
     f88:	df 93       	push	r29
     f8a:	ec 01       	movw	r28, r24
     f8c:	05 e0       	ldi	r16, 0x05	; 5
     f8e:	10 e0       	ldi	r17, 0x00	; 0
	for (int i=0; i < DISPLAY_DIGITS; i++) {
		writePattern(getPatFomHex(number % 16));
     f90:	ee 24       	eor	r14, r14
     f92:	ff 24       	eor	r15, r15
     f94:	68 94       	set
     f96:	e4 f8       	bld	r14, 4
     f98:	ce 01       	movw	r24, r28
     f9a:	b7 01       	movw	r22, r14
     f9c:	0e 94 15 09 	call	0x122a	; 0x122a <__divmodhi4>
     fa0:	0e 94 5d 06 	call	0xcba	; 0xcba <getPatFomHex>
     fa4:	0e 94 a3 06 	call	0xd46	; 0xd46 <writePattern>
		number = number / 16;
     fa8:	ce 01       	movw	r24, r28
     faa:	dd 23       	and	r29, r29
     fac:	0c f4       	brge	.+2      	; 0xfb0 <writeHexInt+0x32>
     fae:	0f 96       	adiw	r24, 0x0f	; 15
     fb0:	ec 01       	movw	r28, r24
     fb2:	d5 95       	asr	r29
     fb4:	c7 95       	ror	r28
     fb6:	d5 95       	asr	r29
     fb8:	c7 95       	ror	r28
     fba:	d5 95       	asr	r29
     fbc:	c7 95       	ror	r28
     fbe:	d5 95       	asr	r29
     fc0:	c7 95       	ror	r28
     fc2:	01 50       	subi	r16, 0x01	; 1
     fc4:	10 40       	sbci	r17, 0x00	; 0
/* void writeHexInt(int number)
   Purpose: fills the seven segment display with
   an integer number, formatted as hexadecimal.
   */
void writeHexInt(int number) {
	for (int i=0; i < DISPLAY_DIGITS; i++) {
     fc6:	41 f7       	brne	.-48     	; 0xf98 <writeHexInt+0x1a>
		writePattern(getPatFomHex(number % 16));
		number = number / 16;
	}
     fc8:	df 91       	pop	r29
     fca:	cf 91       	pop	r28
     fcc:	1f 91       	pop	r17
     fce:	0f 91       	pop	r16
     fd0:	ff 90       	pop	r15
     fd2:	ef 90       	pop	r14
     fd4:	08 95       	ret

00000fd6 <initalizeStepper>:


// set initial values for stepper
void initalizeStepper() {
	// enable output
	DDRA |= 0b00111111;
     fd6:	81 b1       	in	r24, 0x01	; 1
     fd8:	8f 63       	ori	r24, 0x3F	; 63
     fda:	81 b9       	out	0x01, r24	; 1
	currentState = 0;
     fdc:	10 92 b3 01 	sts	0x01B3, r1
     fe0:	10 92 b2 01 	sts	0x01B2, r1
	PORTA = (PORTA & 0b11000000) | states[currentState];
     fe4:	82 b1       	in	r24, 0x02	; 2
     fe6:	80 7c       	andi	r24, 0xC0	; 192
     fe8:	80 63       	ori	r24, 0x30	; 48
     fea:	82 b9       	out	0x02, r24	; 2
	hallLow = 0;
     fec:	10 92 b6 01 	sts	0x01B6, r1
	steps = 1;
     ff0:	81 e0       	ldi	r24, 0x01	; 1
     ff2:	90 e0       	ldi	r25, 0x00	; 0
     ff4:	90 93 b5 01 	sts	0x01B5, r25
     ff8:	80 93 b4 01 	sts	0x01B4, r24
}
     ffc:	08 95       	ret

00000ffe <stepTime>:


void stepTime(int stepTime, char direction) {
     ffe:	cf 93       	push	r28
    1000:	c6 2f       	mov	r28, r22
	delaynms(stepTime);
    1002:	0e 94 f4 08 	call	0x11e8	; 0x11e8 <delaynms>
	if(direction == 0) { //forward direction
    1006:	cc 23       	and	r28, r28
    1008:	81 f5       	brne	.+96     	; 0x106a <stepTime+0x6c>
		currentState++;
    100a:	80 91 b2 01 	lds	r24, 0x01B2
    100e:	90 91 b3 01 	lds	r25, 0x01B3
    1012:	01 96       	adiw	r24, 0x01	; 1
    1014:	90 93 b3 01 	sts	0x01B3, r25
    1018:	80 93 b2 01 	sts	0x01B2, r24
		if (currentState==4) currentState = 0;
    101c:	84 30       	cpi	r24, 0x04	; 4
    101e:	91 05       	cpc	r25, r1
    1020:	21 f4       	brne	.+8      	; 0x102a <stepTime+0x2c>
    1022:	10 92 b3 01 	sts	0x01B3, r1
    1026:	10 92 b2 01 	sts	0x01B2, r1
		PORTA = (PORTA & 0b11000000) | states[currentState];
    102a:	82 b1       	in	r24, 0x02	; 2
    102c:	e0 91 b2 01 	lds	r30, 0x01B2
    1030:	f0 91 b3 01 	lds	r31, 0x01B3
    1034:	e0 50       	subi	r30, 0x00	; 0
    1036:	ff 4f       	sbci	r31, 0xFF	; 255
    1038:	80 7c       	andi	r24, 0xC0	; 192
    103a:	90 81       	ld	r25, Z
    103c:	89 2b       	or	r24, r25
    103e:	82 b9       	out	0x02, r24	; 2
		steps++;
    1040:	80 91 b4 01 	lds	r24, 0x01B4
    1044:	90 91 b5 01 	lds	r25, 0x01B5
    1048:	01 96       	adiw	r24, 0x01	; 1
    104a:	90 93 b5 01 	sts	0x01B5, r25
    104e:	80 93 b4 01 	sts	0x01B4, r24
		if(hallLow == 1) {
    1052:	80 91 b6 01 	lds	r24, 0x01B6
    1056:	81 30       	cpi	r24, 0x01	; 1
    1058:	09 f0       	breq	.+2      	; 0x105c <stepTime+0x5e>
    105a:	40 c0       	rjmp	.+128    	; 0x10dc <stepTime+0xde>
			steps = 0;
    105c:	10 92 b5 01 	sts	0x01B5, r1
    1060:	10 92 b4 01 	sts	0x01B4, r1
			hallLow = 0;
    1064:	10 92 b6 01 	sts	0x01B6, r1
    1068:	39 c0       	rjmp	.+114    	; 0x10dc <stepTime+0xde>
		}
	}
	else { //reverse direction
		currentState--;
    106a:	80 91 b2 01 	lds	r24, 0x01B2
    106e:	90 91 b3 01 	lds	r25, 0x01B3
    1072:	01 97       	sbiw	r24, 0x01	; 1
    1074:	90 93 b3 01 	sts	0x01B3, r25
    1078:	80 93 b2 01 	sts	0x01B2, r24
		if (currentState==-1) currentState = 3;
    107c:	2f ef       	ldi	r18, 0xFF	; 255
    107e:	8f 3f       	cpi	r24, 0xFF	; 255
    1080:	92 07       	cpc	r25, r18
    1082:	31 f4       	brne	.+12     	; 0x1090 <stepTime+0x92>
    1084:	83 e0       	ldi	r24, 0x03	; 3
    1086:	90 e0       	ldi	r25, 0x00	; 0
    1088:	90 93 b3 01 	sts	0x01B3, r25
    108c:	80 93 b2 01 	sts	0x01B2, r24
		PORTA = (PORTA & 0b11000000) | states[currentState];
    1090:	82 b1       	in	r24, 0x02	; 2
    1092:	e0 91 b2 01 	lds	r30, 0x01B2
    1096:	f0 91 b3 01 	lds	r31, 0x01B3
    109a:	e0 50       	subi	r30, 0x00	; 0
    109c:	ff 4f       	sbci	r31, 0xFF	; 255
    109e:	80 7c       	andi	r24, 0xC0	; 192
    10a0:	90 81       	ld	r25, Z
    10a2:	89 2b       	or	r24, r25
    10a4:	82 b9       	out	0x02, r24	; 2
		steps--;
    10a6:	80 91 b4 01 	lds	r24, 0x01B4
    10aa:	90 91 b5 01 	lds	r25, 0x01B5
    10ae:	01 97       	sbiw	r24, 0x01	; 1
    10b0:	90 93 b5 01 	sts	0x01B5, r25
    10b4:	80 93 b4 01 	sts	0x01B4, r24
		if(steps < 0) steps = 199;
    10b8:	99 23       	and	r25, r25
    10ba:	34 f4       	brge	.+12     	; 0x10c8 <stepTime+0xca>
    10bc:	87 ec       	ldi	r24, 0xC7	; 199
    10be:	90 e0       	ldi	r25, 0x00	; 0
    10c0:	90 93 b5 01 	sts	0x01B5, r25
    10c4:	80 93 b4 01 	sts	0x01B4, r24
		if(hallLow == 1) {
    10c8:	80 91 b6 01 	lds	r24, 0x01B6
    10cc:	81 30       	cpi	r24, 0x01	; 1
    10ce:	31 f4       	brne	.+12     	; 0x10dc <stepTime+0xde>
			steps = 0;
    10d0:	10 92 b5 01 	sts	0x01B5, r1
    10d4:	10 92 b4 01 	sts	0x01B4, r1
			hallLow = 0;
    10d8:	10 92 b6 01 	sts	0x01B6, r1
		}				
	}
}
    10dc:	cf 91       	pop	r28
    10de:	08 95       	ret

000010e0 <forwardSteps>:

int forwardSteps(int current, int target) {
	int stepsRequired;
	
	// no wrap around
	if(target > current) stepsRequired = abs(target - current);
    10e0:	86 17       	cp	r24, r22
    10e2:	97 07       	cpc	r25, r23
    10e4:	4c f4       	brge	.+18     	; 0x10f8 <forwardSteps+0x18>
    10e6:	68 1b       	sub	r22, r24
    10e8:	79 0b       	sbc	r23, r25
    10ea:	1a f4       	brpl	.+6      	; 0x10f2 <forwardSteps+0x12>
    10ec:	70 95       	com	r23
    10ee:	61 95       	neg	r22
    10f0:	7f 4f       	sbci	r23, 0xFF	; 255
    10f2:	86 2f       	mov	r24, r22
    10f4:	97 2f       	mov	r25, r23
    10f6:	08 95       	ret
	
	// wrap arround
	else stepsRequired = abs(200 - abs(target - current));
    10f8:	68 1b       	sub	r22, r24
    10fa:	79 0b       	sbc	r23, r25
    10fc:	1a f4       	brpl	.+6      	; 0x1104 <forwardSteps+0x24>
    10fe:	70 95       	com	r23
    1100:	61 95       	neg	r22
    1102:	7f 4f       	sbci	r23, 0xFF	; 255
    1104:	28 ec       	ldi	r18, 0xC8	; 200
    1106:	30 e0       	ldi	r19, 0x00	; 0
    1108:	26 1b       	sub	r18, r22
    110a:	37 0b       	sbc	r19, r23
    110c:	1a f4       	brpl	.+6      	; 0x1114 <forwardSteps+0x34>
    110e:	30 95       	com	r19
    1110:	21 95       	neg	r18
    1112:	3f 4f       	sbci	r19, 0xFF	; 255
    1114:	82 2f       	mov	r24, r18
    1116:	93 2f       	mov	r25, r19
	
	return stepsRequired;
}
    1118:	08 95       	ret

0000111a <reverseSteps>:

int reverseSteps(int current, int target) {
	int stepsRequired;
	
	// wrap around
	if(target < current) stepsRequired = abs(target - current);
    111a:	68 17       	cp	r22, r24
    111c:	79 07       	cpc	r23, r25
    111e:	4c f4       	brge	.+18     	; 0x1132 <reverseSteps+0x18>
    1120:	68 1b       	sub	r22, r24
    1122:	79 0b       	sbc	r23, r25
    1124:	1a f4       	brpl	.+6      	; 0x112c <reverseSteps+0x12>
    1126:	70 95       	com	r23
    1128:	61 95       	neg	r22
    112a:	7f 4f       	sbci	r23, 0xFF	; 255
    112c:	86 2f       	mov	r24, r22
    112e:	97 2f       	mov	r25, r23
    1130:	08 95       	ret

	// no wrap around
	else stepsRequired = abs(200 - abs(target - current));
    1132:	68 1b       	sub	r22, r24
    1134:	79 0b       	sbc	r23, r25
    1136:	1a f4       	brpl	.+6      	; 0x113e <reverseSteps+0x24>
    1138:	70 95       	com	r23
    113a:	61 95       	neg	r22
    113c:	7f 4f       	sbci	r23, 0xFF	; 255
    113e:	28 ec       	ldi	r18, 0xC8	; 200
    1140:	30 e0       	ldi	r19, 0x00	; 0
    1142:	26 1b       	sub	r18, r22
    1144:	37 0b       	sbc	r19, r23
    1146:	1a f4       	brpl	.+6      	; 0x114e <reverseSteps+0x34>
    1148:	30 95       	com	r19
    114a:	21 95       	neg	r18
    114c:	3f 4f       	sbci	r19, 0xFF	; 255
    114e:	82 2f       	mov	r24, r18
    1150:	93 2f       	mov	r25, r19
	
	return stepsRequired;
}
    1152:	08 95       	ret

00001154 <stepperMoveTo>:
		}				
	}
}

// function to calculate how stepper should rotate
void stepperMoveTo(int nextPosition){
    1154:	ef 92       	push	r14
    1156:	ff 92       	push	r15
    1158:	0f 93       	push	r16
    115a:	1f 93       	push	r17
    115c:	cf 93       	push	r28
    115e:	df 93       	push	r29
    1160:	7c 01       	movw	r14, r24
	if (steps == nextPosition) return;
    1162:	c0 91 b4 01 	lds	r28, 0x01B4
    1166:	d0 91 b5 01 	lds	r29, 0x01B5
    116a:	c8 17       	cp	r28, r24
    116c:	d9 07       	cpc	r29, r25
    116e:	79 f1       	breq	.+94     	; 0x11ce <stepperMoveTo+0x7a>
	if(forwardSteps(steps, nextPosition) < reverseSteps(steps, nextPosition)) {
    1170:	ce 01       	movw	r24, r28
    1172:	b7 01       	movw	r22, r14
    1174:	0e 94 70 08 	call	0x10e0	; 0x10e0 <forwardSteps>
    1178:	8c 01       	movw	r16, r24
    117a:	ce 01       	movw	r24, r28
    117c:	b7 01       	movw	r22, r14
    117e:	0e 94 8d 08 	call	0x111a	; 0x111a <reverseSteps>
    1182:	08 17       	cp	r16, r24
    1184:	19 07       	cpc	r17, r25
    1186:	6c f4       	brge	.+26     	; 0x11a2 <stepperMoveTo+0x4e>
		while(steps != nextPosition) {
			stepTime(15,0);
    1188:	8f e0       	ldi	r24, 0x0F	; 15
    118a:	90 e0       	ldi	r25, 0x00	; 0
    118c:	60 e0       	ldi	r22, 0x00	; 0
    118e:	0e 94 ff 07 	call	0xffe	; 0xffe <stepTime>

// function to calculate how stepper should rotate
void stepperMoveTo(int nextPosition){
	if (steps == nextPosition) return;
	if(forwardSteps(steps, nextPosition) < reverseSteps(steps, nextPosition)) {
		while(steps != nextPosition) {
    1192:	80 91 b4 01 	lds	r24, 0x01B4
    1196:	90 91 b5 01 	lds	r25, 0x01B5
    119a:	8e 15       	cp	r24, r14
    119c:	9f 05       	cpc	r25, r15
    119e:	a1 f7       	brne	.-24     	; 0x1188 <stepperMoveTo+0x34>
    11a0:	0c c0       	rjmp	.+24     	; 0x11ba <stepperMoveTo+0x66>
		}
	}
	
	else {
			while(steps != nextPosition) {
				stepTime(15,1);
    11a2:	8f e0       	ldi	r24, 0x0F	; 15
    11a4:	90 e0       	ldi	r25, 0x00	; 0
    11a6:	61 e0       	ldi	r22, 0x01	; 1
    11a8:	0e 94 ff 07 	call	0xffe	; 0xffe <stepTime>
			stepTime(15,0);
		}
	}
	
	else {
			while(steps != nextPosition) {
    11ac:	80 91 b4 01 	lds	r24, 0x01B4
    11b0:	90 91 b5 01 	lds	r25, 0x01B5
    11b4:	8e 15       	cp	r24, r14
    11b6:	9f 05       	cpc	r25, r15
    11b8:	a1 f7       	brne	.-24     	; 0x11a2 <stepperMoveTo+0x4e>
				stepTime(15,1);
			}			
		}
	
	if(motorWaitForStepper == 1) {
    11ba:	80 91 07 01 	lds	r24, 0x0107
    11be:	81 30       	cpi	r24, 0x01	; 1
    11c0:	31 f4       	brne	.+12     	; 0x11ce <stepperMoveTo+0x7a>
		// start the motor back up
		setMotorFwd();
    11c2:	0e 94 29 01 	call	0x252	; 0x252 <setMotorFwd>
		// clear the flag
		motorWaitForStepper = 0;
    11c6:	10 92 07 01 	sts	0x0107, r1
		// fire the exit logic again
		exitHandler();
    11ca:	0e 94 67 02 	call	0x4ce	; 0x4ce <exitHandler>
	}
}
    11ce:	df 91       	pop	r29
    11d0:	cf 91       	pop	r28
    11d2:	1f 91       	pop	r17
    11d4:	0f 91       	pop	r16
    11d6:	ff 90       	pop	r15
    11d8:	ef 90       	pop	r14
    11da:	08 95       	ret

000011dc <initializeTimer>:
#include <avr/io.h>

void initializeTimer() {
	// bitwise OR to set timer/counter control register
	// to cpu clock, pure timer.
	TCCR1B|=_BV(CS10);
    11dc:	e1 e8       	ldi	r30, 0x81	; 129
    11de:	f0 e0       	ldi	r31, 0x00	; 0
    11e0:	80 81       	ld	r24, Z
    11e2:	81 60       	ori	r24, 0x01	; 1
    11e4:	80 83       	st	Z, r24
} 
    11e6:	08 95       	ret

000011e8 <delaynms>:

void delaynms(int n)   // delay milliseconds
{
    11e8:	9c 01       	movw	r18, r24
	// Set waveform generator bits to 0100 (count up and
	// reset on hit)
	TCCR1B |=_BV(WGM12);
    11ea:	e1 e8       	ldi	r30, 0x81	; 129
    11ec:	f0 e0       	ldi	r31, 0x00	; 0
    11ee:	80 81       	ld	r24, Z
    11f0:	88 60       	ori	r24, 0x08	; 8
    11f2:	80 83       	st	Z, r24
	
	// Set the clock prescaler to 1/64th
	TCCR1B |= 0b00000011;
    11f4:	80 81       	ld	r24, Z
    11f6:	83 60       	ori	r24, 0x03	; 3
    11f8:	80 83       	st	Z, r24

	for(int i=0; i<n; i++) {
    11fa:	12 16       	cp	r1, r18
    11fc:	13 06       	cpc	r1, r19
    11fe:	a4 f4       	brge	.+40     	; 0x1228 <delaynms+0x40>
    1200:	80 e0       	ldi	r24, 0x00	; 0
    1202:	90 e0       	ldi	r25, 0x00	; 0
		// set the output compare register
		// to 1 ms
		OCR1A = 125;
    1204:	e8 e8       	ldi	r30, 0x88	; 136
    1206:	f0 e0       	ldi	r31, 0x00	; 0
    1208:	4d e7       	ldi	r20, 0x7D	; 125
    120a:	50 e0       	ldi	r21, 0x00	; 0

		// set initial value to zero
		TCNT1 = 0;
    120c:	a4 e8       	ldi	r26, 0x84	; 132
    120e:	b0 e0       	ldi	r27, 0x00	; 0
	TCCR1B |= 0b00000011;

	for(int i=0; i<n; i++) {
		// set the output compare register
		// to 1 ms
		OCR1A = 125;
    1210:	51 83       	std	Z+1, r21	; 0x01
    1212:	40 83       	st	Z, r20

		// set initial value to zero
		TCNT1 = 0;
    1214:	11 96       	adiw	r26, 0x01	; 1
    1216:	1c 92       	st	X, r1
    1218:	1e 92       	st	-X, r1

		// enable output compare interrupt enable
		//TIMSK1|=0b00000010;

		// begin timer
		TIFR1|=_BV(OCF1A);
    121a:	b1 9a       	sbi	0x16, 1	; 22

		// poll until we reach our number of milliseconds
		while(1) {
			if((TIFR1 & 0x02) == 0x02) break;
    121c:	b1 9b       	sbis	0x16, 1	; 22
    121e:	fe cf       	rjmp	.-4      	; 0x121c <delaynms+0x34>
	TCCR1B |=_BV(WGM12);
	
	// Set the clock prescaler to 1/64th
	TCCR1B |= 0b00000011;

	for(int i=0; i<n; i++) {
    1220:	01 96       	adiw	r24, 0x01	; 1
    1222:	82 17       	cp	r24, r18
    1224:	93 07       	cpc	r25, r19
    1226:	a1 f7       	brne	.-24     	; 0x1210 <delaynms+0x28>
    1228:	08 95       	ret

0000122a <__divmodhi4>:
    122a:	97 fb       	bst	r25, 7
    122c:	09 2e       	mov	r0, r25
    122e:	07 26       	eor	r0, r23
    1230:	0a d0       	rcall	.+20     	; 0x1246 <__divmodhi4_neg1>
    1232:	77 fd       	sbrc	r23, 7
    1234:	04 d0       	rcall	.+8      	; 0x123e <__divmodhi4_neg2>
    1236:	0c d0       	rcall	.+24     	; 0x1250 <__udivmodhi4>
    1238:	06 d0       	rcall	.+12     	; 0x1246 <__divmodhi4_neg1>
    123a:	00 20       	and	r0, r0
    123c:	1a f4       	brpl	.+6      	; 0x1244 <__divmodhi4_exit>

0000123e <__divmodhi4_neg2>:
    123e:	70 95       	com	r23
    1240:	61 95       	neg	r22
    1242:	7f 4f       	sbci	r23, 0xFF	; 255

00001244 <__divmodhi4_exit>:
    1244:	08 95       	ret

00001246 <__divmodhi4_neg1>:
    1246:	f6 f7       	brtc	.-4      	; 0x1244 <__divmodhi4_exit>
    1248:	90 95       	com	r25
    124a:	81 95       	neg	r24
    124c:	9f 4f       	sbci	r25, 0xFF	; 255
    124e:	08 95       	ret

00001250 <__udivmodhi4>:
    1250:	aa 1b       	sub	r26, r26
    1252:	bb 1b       	sub	r27, r27
    1254:	51 e1       	ldi	r21, 0x11	; 17
    1256:	07 c0       	rjmp	.+14     	; 0x1266 <__udivmodhi4_ep>

00001258 <__udivmodhi4_loop>:
    1258:	aa 1f       	adc	r26, r26
    125a:	bb 1f       	adc	r27, r27
    125c:	a6 17       	cp	r26, r22
    125e:	b7 07       	cpc	r27, r23
    1260:	10 f0       	brcs	.+4      	; 0x1266 <__udivmodhi4_ep>
    1262:	a6 1b       	sub	r26, r22
    1264:	b7 0b       	sbc	r27, r23

00001266 <__udivmodhi4_ep>:
    1266:	88 1f       	adc	r24, r24
    1268:	99 1f       	adc	r25, r25
    126a:	5a 95       	dec	r21
    126c:	a9 f7       	brne	.-22     	; 0x1258 <__udivmodhi4_loop>
    126e:	80 95       	com	r24
    1270:	90 95       	com	r25
    1272:	bc 01       	movw	r22, r24
    1274:	cd 01       	movw	r24, r26
    1276:	08 95       	ret

00001278 <_exit>:
    1278:	f8 94       	cli

0000127a <__stop_program>:
    127a:	ff cf       	rjmp	.-2      	; 0x127a <__stop_program>
