
ConveyerBelt.elf:     file format elf32-avr

Sections:
Idx Name          Size      VMA       LMA       File off  Algn
  0 .data         00000004  00800100  00000ce2  00000d76  2**0
                  CONTENTS, ALLOC, LOAD, DATA
  1 .text         00000ce2  00000000  00000000  00000094  2**1
                  CONTENTS, ALLOC, LOAD, READONLY, CODE
  2 .bss          00000192  00800104  00800104  00000d7a  2**0
                  ALLOC
  3 .stab         000006cc  00000000  00000000  00000d7c  2**2
                  CONTENTS, READONLY, DEBUGGING
  4 .stabstr      00000085  00000000  00000000  00001448  2**0
                  CONTENTS, READONLY, DEBUGGING
  5 .debug_aranges 000001e0  00000000  00000000  000014d0  2**3
                  CONTENTS, READONLY, DEBUGGING
  6 .debug_info   0000150c  00000000  00000000  000016b0  2**0
                  CONTENTS, READONLY, DEBUGGING
  7 .debug_abbrev 0000073b  00000000  00000000  00002bbc  2**0
                  CONTENTS, READONLY, DEBUGGING
  8 .debug_line   00000ca1  00000000  00000000  000032f7  2**0
                  CONTENTS, READONLY, DEBUGGING
  9 .debug_frame  000005bc  00000000  00000000  00003f98  2**2
                  CONTENTS, READONLY, DEBUGGING
 10 .debug_str    00000471  00000000  00000000  00004554  2**0
                  CONTENTS, READONLY, DEBUGGING
 11 .debug_loc    00000c41  00000000  00000000  000049c5  2**0
                  CONTENTS, READONLY, DEBUGGING

Disassembly of section .text:

00000000 <__vectors>:
   0:	0c 94 4c 00 	jmp	0x98	; 0x98 <__ctors_end>
   4:	0c 94 32 02 	jmp	0x464	; 0x464 <__vector_1>
   8:	0c 94 5a 02 	jmp	0x4b4	; 0x4b4 <__vector_2>
   c:	0c 94 82 02 	jmp	0x504	; 0x504 <__vector_3>
  10:	0c 94 aa 02 	jmp	0x554	; 0x554 <__vector_4>
  14:	0c 94 d2 02 	jmp	0x5a4	; 0x5a4 <__vector_5>
  18:	0c 94 e1 02 	jmp	0x5c2	; 0x5c2 <__vector_6>
  1c:	0c 94 0b 03 	jmp	0x616	; 0x616 <__vector_7>
  20:	0c 94 6c 00 	jmp	0xd8	; 0xd8 <__bad_interrupt>
  24:	0c 94 6c 00 	jmp	0xd8	; 0xd8 <__bad_interrupt>
  28:	0c 94 6c 00 	jmp	0xd8	; 0xd8 <__bad_interrupt>
  2c:	0c 94 6c 00 	jmp	0xd8	; 0xd8 <__bad_interrupt>
  30:	0c 94 6c 00 	jmp	0xd8	; 0xd8 <__bad_interrupt>
  34:	0c 94 6c 00 	jmp	0xd8	; 0xd8 <__bad_interrupt>
  38:	0c 94 6c 00 	jmp	0xd8	; 0xd8 <__bad_interrupt>
  3c:	0c 94 6c 00 	jmp	0xd8	; 0xd8 <__bad_interrupt>
  40:	0c 94 6c 00 	jmp	0xd8	; 0xd8 <__bad_interrupt>
  44:	0c 94 6c 00 	jmp	0xd8	; 0xd8 <__bad_interrupt>
  48:	0c 94 6c 00 	jmp	0xd8	; 0xd8 <__bad_interrupt>
  4c:	0c 94 6c 00 	jmp	0xd8	; 0xd8 <__bad_interrupt>
  50:	0c 94 6c 00 	jmp	0xd8	; 0xd8 <__bad_interrupt>
  54:	0c 94 6c 00 	jmp	0xd8	; 0xd8 <__bad_interrupt>
  58:	0c 94 6c 00 	jmp	0xd8	; 0xd8 <__bad_interrupt>
  5c:	0c 94 6c 00 	jmp	0xd8	; 0xd8 <__bad_interrupt>
  60:	0c 94 6c 00 	jmp	0xd8	; 0xd8 <__bad_interrupt>
  64:	0c 94 6c 00 	jmp	0xd8	; 0xd8 <__bad_interrupt>
  68:	0c 94 6c 00 	jmp	0xd8	; 0xd8 <__bad_interrupt>
  6c:	0c 94 6c 00 	jmp	0xd8	; 0xd8 <__bad_interrupt>
  70:	0c 94 6c 00 	jmp	0xd8	; 0xd8 <__bad_interrupt>
  74:	0c 94 e7 00 	jmp	0x1ce	; 0x1ce <__vector_29>
  78:	0c 94 6c 00 	jmp	0xd8	; 0xd8 <__bad_interrupt>
  7c:	0c 94 6c 00 	jmp	0xd8	; 0xd8 <__bad_interrupt>
  80:	0c 94 6c 00 	jmp	0xd8	; 0xd8 <__bad_interrupt>
  84:	0c 94 6c 00 	jmp	0xd8	; 0xd8 <__bad_interrupt>
  88:	0c 94 6c 00 	jmp	0xd8	; 0xd8 <__bad_interrupt>
  8c:	0c 94 6c 00 	jmp	0xd8	; 0xd8 <__bad_interrupt>
  90:	0c 94 6c 00 	jmp	0xd8	; 0xd8 <__bad_interrupt>
  94:	0c 94 6c 00 	jmp	0xd8	; 0xd8 <__bad_interrupt>

00000098 <__ctors_end>:
  98:	11 24       	eor	r1, r1
  9a:	1f be       	out	0x3f, r1	; 63
  9c:	cf ef       	ldi	r28, 0xFF	; 255
  9e:	d0 e2       	ldi	r29, 0x20	; 32
  a0:	de bf       	out	0x3e, r29	; 62
  a2:	cd bf       	out	0x3d, r28	; 61

000000a4 <__do_copy_data>:
  a4:	11 e0       	ldi	r17, 0x01	; 1
  a6:	a0 e0       	ldi	r26, 0x00	; 0
  a8:	b1 e0       	ldi	r27, 0x01	; 1
  aa:	e2 ee       	ldi	r30, 0xE2	; 226
  ac:	fc e0       	ldi	r31, 0x0C	; 12
  ae:	00 e0       	ldi	r16, 0x00	; 0
  b0:	0b bf       	out	0x3b, r16	; 59
  b2:	02 c0       	rjmp	.+4      	; 0xb8 <__do_copy_data+0x14>
  b4:	07 90       	elpm	r0, Z+
  b6:	0d 92       	st	X+, r0
  b8:	a4 30       	cpi	r26, 0x04	; 4
  ba:	b1 07       	cpc	r27, r17
  bc:	d9 f7       	brne	.-10     	; 0xb4 <__do_copy_data+0x10>
  be:	1b be       	out	0x3b, r1	; 59

000000c0 <__do_clear_bss>:
  c0:	12 e0       	ldi	r17, 0x02	; 2
  c2:	a4 e0       	ldi	r26, 0x04	; 4
  c4:	b1 e0       	ldi	r27, 0x01	; 1
  c6:	01 c0       	rjmp	.+2      	; 0xca <.do_clear_bss_start>

000000c8 <.do_clear_bss_loop>:
  c8:	1d 92       	st	X+, r1

000000ca <.do_clear_bss_start>:
  ca:	a6 39       	cpi	r26, 0x96	; 150
  cc:	b1 07       	cpc	r27, r17
  ce:	e1 f7       	brne	.-8      	; 0xc8 <.do_clear_bss_loop>
  d0:	0e 94 35 03 	call	0x66a	; 0x66a <main>
  d4:	0c 94 6f 06 	jmp	0xcde	; 0xcde <_exit>

000000d8 <__bad_interrupt>:
  d8:	0c 94 00 00 	jmp	0	; 0x0 <__vectors>

000000dc <setupADC>:
#include <avr/interrupt.h>

char ADC_is_running;

void setupADC() {
	DDRF = 0x00;
  dc:	10 ba       	out	0x10, r1	; 16
	// ADC setup
	ADCSRA |= _BV(ADEN);
  de:	ea e7       	ldi	r30, 0x7A	; 122
  e0:	f0 e0       	ldi	r31, 0x00	; 0
  e2:	80 81       	ld	r24, Z
  e4:	80 68       	ori	r24, 0x80	; 128
  e6:	80 83       	st	Z, r24
	ADCSRA |= _BV(ADIE);
  e8:	80 81       	ld	r24, Z
  ea:	88 60       	ori	r24, 0x08	; 8
  ec:	80 83       	st	Z, r24
	ADCSRA |= _BV(ADPS0) | _BV(ADPS1) | _BV(ADPS2);
  ee:	80 81       	ld	r24, Z
  f0:	87 60       	ori	r24, 0x07	; 7
  f2:	80 83       	st	Z, r24
	ADMUX |= _BV(REFS0) | 0b01;
  f4:	ec e7       	ldi	r30, 0x7C	; 124
  f6:	f0 e0       	ldi	r31, 0x00	; 0
  f8:	80 81       	ld	r24, Z
  fa:	81 64       	ori	r24, 0x41	; 65
  fc:	80 83       	st	Z, r24
	ADC_is_running = 0;
  fe:	10 92 04 01 	sts	0x0104, r1
	sei();
 102:	78 94       	sei
}
 104:	08 95       	ret

00000106 <startADC>:

void startADC() {
	ADC_is_running = 1;
 106:	81 e0       	ldi	r24, 0x01	; 1
 108:	80 93 04 01 	sts	0x0104, r24
	ADCSRA |= _BV(ADSC);
 10c:	ea e7       	ldi	r30, 0x7A	; 122
 10e:	f0 e0       	ldi	r31, 0x00	; 0
 110:	80 81       	ld	r24, Z
 112:	80 64       	ori	r24, 0x40	; 64
 114:	80 83       	st	Z, r24
	sei();
 116:	78 94       	sei
}
 118:	08 95       	ret

0000011a <stopADC>:

void stopADC() {
	ADC_is_running = 0;
 11a:	10 92 04 01 	sts	0x0104, r1
	ADCSRA &= ~_BV(ADSC);
 11e:	ea e7       	ldi	r30, 0x7A	; 122
 120:	f0 e0       	ldi	r31, 0x00	; 0
 122:	80 81       	ld	r24, Z
 124:	8f 7b       	andi	r24, 0xBF	; 191
 126:	80 83       	st	Z, r24
}
 128:	08 95       	ret

0000012a <updateAverage>:

void updateAverage(int refl) {
 12a:	ef 92       	push	r14
 12c:	ff 92       	push	r15
 12e:	0f 93       	push	r16
 130:	1f 93       	push	r17
 132:	cf 93       	push	r28
 134:	df 93       	push	r29
 136:	fc 01       	movw	r30, r24
	// if we have too many samples, toss 'em
	if(ringBuf[currentRefl].reflSamples > REFL_MAX_SAMPLES) return;
 138:	80 91 09 01 	lds	r24, 0x0109
 13c:	90 91 0a 01 	lds	r25, 0x010A
 140:	dc 01       	movw	r26, r24
 142:	aa 0f       	add	r26, r26
 144:	bb 1f       	adc	r27, r27
 146:	a8 0f       	add	r26, r24
 148:	b9 1f       	adc	r27, r25
 14a:	aa 0f       	add	r26, r26
 14c:	bb 1f       	adc	r27, r27
 14e:	a3 5f       	subi	r26, 0xF3	; 243
 150:	be 4f       	sbci	r27, 0xFE	; 254
 152:	14 96       	adiw	r26, 0x04	; 4
 154:	4d 91       	ld	r20, X+
 156:	5c 91       	ld	r21, X
 158:	15 97       	sbiw	r26, 0x05	; 5
 15a:	01 e0       	ldi	r16, 0x01	; 1
 15c:	4d 32       	cpi	r20, 0x2D	; 45
 15e:	50 07       	cpc	r21, r16
 160:	7c f5       	brge	.+94     	; 0x1c0 <updateAverage+0x96>
	// throw out spurious values
	if((refl < REFL_MIN) || (refl > REFL_MAX)) return;
 162:	9f 01       	movw	r18, r30
 164:	28 5c       	subi	r18, 0xC8	; 200
 166:	30 40       	sbci	r19, 0x00	; 0
 168:	28 33       	cpi	r18, 0x38	; 56
 16a:	31 05       	cpc	r19, r1
 16c:	48 f5       	brcc	.+82     	; 0x1c0 <updateAverage+0x96>
	// average it out
	long int meanprod = ringBuf[currentRefl].avgRefl * ringBuf[currentRefl].reflSamples;
 16e:	ed 01       	movw	r28, r26
 170:	8a 81       	ldd	r24, Y+2	; 0x02
 172:	9b 81       	ldd	r25, Y+3	; 0x03
 174:	48 9f       	mul	r20, r24
 176:	b0 01       	movw	r22, r0
 178:	49 9f       	mul	r20, r25
 17a:	70 0d       	add	r23, r0
 17c:	58 9f       	mul	r21, r24
 17e:	70 0d       	add	r23, r0
 180:	11 24       	eor	r1, r1
 182:	cb 01       	movw	r24, r22
 184:	aa 27       	eor	r26, r26
 186:	97 fd       	sbrc	r25, 7
 188:	a0 95       	com	r26
 18a:	ba 2f       	mov	r27, r26
	meanprod += refl;
	ringBuf[currentRefl].reflSamples++;
 18c:	9a 01       	movw	r18, r20
 18e:	2f 5f       	subi	r18, 0xFF	; 255
 190:	3f 4f       	sbci	r19, 0xFF	; 255
 192:	3d 83       	std	Y+5, r19	; 0x05
 194:	2c 83       	std	Y+4, r18	; 0x04
	if(ringBuf[currentRefl].reflSamples > REFL_MAX_SAMPLES) return;
	// throw out spurious values
	if((refl < REFL_MIN) || (refl > REFL_MAX)) return;
	// average it out
	long int meanprod = ringBuf[currentRefl].avgRefl * ringBuf[currentRefl].reflSamples;
	meanprod += refl;
 196:	af 01       	movw	r20, r30
 198:	66 27       	eor	r22, r22
 19a:	57 fd       	sbrc	r21, 7
 19c:	60 95       	com	r22
 19e:	76 2f       	mov	r23, r22
 1a0:	7a 01       	movw	r14, r20
 1a2:	8b 01       	movw	r16, r22
 1a4:	e8 0e       	add	r14, r24
 1a6:	f9 1e       	adc	r15, r25
 1a8:	0a 1f       	adc	r16, r26
 1aa:	1b 1f       	adc	r17, r27
 1ac:	c8 01       	movw	r24, r16
 1ae:	b7 01       	movw	r22, r14
	ringBuf[currentRefl].reflSamples++;
	ringBuf[currentRefl].avgRefl = meanprod / ringBuf[currentRefl].reflSamples;
 1b0:	44 27       	eor	r20, r20
 1b2:	37 fd       	sbrc	r19, 7
 1b4:	40 95       	com	r20
 1b6:	54 2f       	mov	r21, r20
 1b8:	0e 94 1e 06 	call	0xc3c	; 0xc3c <__divmodsi4>
 1bc:	3b 83       	std	Y+3, r19	; 0x03
 1be:	2a 83       	std	Y+2, r18	; 0x02
	return;
}
 1c0:	df 91       	pop	r29
 1c2:	cf 91       	pop	r28
 1c4:	1f 91       	pop	r17
 1c6:	0f 91       	pop	r16
 1c8:	ff 90       	pop	r15
 1ca:	ef 90       	pop	r14
 1cc:	08 95       	ret

000001ce <__vector_29>:

ISR(ADC_vect) {
 1ce:	1f 92       	push	r1
 1d0:	0f 92       	push	r0
 1d2:	0f b6       	in	r0, 0x3f	; 63
 1d4:	0f 92       	push	r0
 1d6:	0b b6       	in	r0, 0x3b	; 59
 1d8:	0f 92       	push	r0
 1da:	11 24       	eor	r1, r1
 1dc:	2f 93       	push	r18
 1de:	3f 93       	push	r19
 1e0:	4f 93       	push	r20
 1e2:	5f 93       	push	r21
 1e4:	6f 93       	push	r22
 1e6:	7f 93       	push	r23
 1e8:	8f 93       	push	r24
 1ea:	9f 93       	push	r25
 1ec:	af 93       	push	r26
 1ee:	bf 93       	push	r27
 1f0:	ef 93       	push	r30
 1f2:	ff 93       	push	r31
	updateAverage(ADC);
 1f4:	80 91 78 00 	lds	r24, 0x0078
 1f8:	90 91 79 00 	lds	r25, 0x0079
 1fc:	0e 94 95 00 	call	0x12a	; 0x12a <updateAverage>
	ADCSRA |= _BV(ADSC);
 200:	ea e7       	ldi	r30, 0x7A	; 122
 202:	f0 e0       	ldi	r31, 0x00	; 0
 204:	80 81       	ld	r24, Z
 206:	80 64       	ori	r24, 0x40	; 64
 208:	80 83       	st	Z, r24
 20a:	ff 91       	pop	r31
 20c:	ef 91       	pop	r30
 20e:	bf 91       	pop	r27
 210:	af 91       	pop	r26
 212:	9f 91       	pop	r25
 214:	8f 91       	pop	r24
 216:	7f 91       	pop	r23
 218:	6f 91       	pop	r22
 21a:	5f 91       	pop	r21
 21c:	4f 91       	pop	r20
 21e:	3f 91       	pop	r19
 220:	2f 91       	pop	r18
 222:	0f 90       	pop	r0
 224:	0b be       	out	0x3b, r0	; 59
 226:	0f 90       	pop	r0
 228:	0f be       	out	0x3f, r0	; 63
 22a:	0f 90       	pop	r0
 22c:	1f 90       	pop	r1
 22e:	18 95       	reti

00000230 <setupMotor>:

int motorWaitForStepper;

void setupMotor() {
	// enable port for output
	DDRC |= ~(MOTOR_BITMASK);
 230:	87 b1       	in	r24, 0x07	; 7
 232:	8f 60       	ori	r24, 0x0F	; 15
 234:	87 b9       	out	0x07, r24	; 7
	
	// put the brakes on
	PORTC = (PORTC & MOTOR_BITMASK) | MOTOR_BRAKE_PATTERN;
 236:	88 b1       	in	r24, 0x08	; 8
 238:	80 7f       	andi	r24, 0xF0	; 240
 23a:	88 b9       	out	0x08, r24	; 8
	
	// start the PWM output
	DDRB = 0xFF;
 23c:	8f ef       	ldi	r24, 0xFF	; 255
 23e:	84 b9       	out	0x04, r24	; 4
	
	// enable PWM fast mode
	TCCR0A = _BV(WGM00) | _BV(WGM01) | _BV(COM0A1) | _BV(COM0B1);
 240:	83 ea       	ldi	r24, 0xA3	; 163
 242:	84 bd       	out	0x24, r24	; 36
	
	// disable prescaler
	TCCR0B = _BV(CS00);
 244:	81 e0       	ldi	r24, 0x01	; 1
 246:	85 bd       	out	0x25, r24	; 37
	
	// set duty cycle
	OCR0A = MOTOR_DEF_SPEED;
 248:	8f e7       	ldi	r24, 0x7F	; 127
 24a:	87 bd       	out	0x27, r24	; 39
	motorWaitForStepper = 0;
 24c:	10 92 06 01 	sts	0x0106, r1
 250:	10 92 05 01 	sts	0x0105, r1
}
 254:	08 95       	ret

00000256 <setMotorSpeed>:

void setMotorSpeed(char speed) {
	OCR0A = speed;
 256:	87 bd       	out	0x27, r24	; 39
}
 258:	08 95       	ret

0000025a <setMotorFwd>:

void setMotorFwd() {
	PORTC = (PORTC & MOTOR_BITMASK) | MOTOR_FWD_PATTERN;
 25a:	88 b1       	in	r24, 0x08	; 8
 25c:	80 7f       	andi	r24, 0xF0	; 240
 25e:	81 60       	ori	r24, 0x01	; 1
 260:	88 b9       	out	0x08, r24	; 8
}
 262:	08 95       	ret

00000264 <setMotorRev>:

void setMotorRev() {
	PORTC = (PORTC & MOTOR_BITMASK) | MOTOR_REV_PATTERN;
 264:	88 b1       	in	r24, 0x08	; 8
 266:	80 7f       	andi	r24, 0xF0	; 240
 268:	88 60       	ori	r24, 0x08	; 8
 26a:	88 b9       	out	0x08, r24	; 8
}
 26c:	08 95       	ret

0000026e <setMotorBrake>:

void setMotorBrake() {
	PORTC = (PORTC & MOTOR_BITMASK) | MOTOR_BRAKE_PATTERN;
 26e:	88 b1       	in	r24, 0x08	; 8
 270:	80 7f       	andi	r24, 0xF0	; 240
 272:	88 b9       	out	0x08, r24	; 8
}
 274:	08 95       	ret

00000276 <setMotorCoast>:

void setMotorCoast() {
	PORTC = (PORTC & MOTOR_BITMASK) | MOTOR_COAST_PATTERN;
 276:	88 b1       	in	r24, 0x08	; 8
 278:	80 7f       	andi	r24, 0xF0	; 240
 27a:	86 60       	ori	r24, 0x06	; 6
 27c:	88 b9       	out	0x08, r24	; 8
 27e:	08 95       	ret

00000280 <vectorInterrupts>:
   external interrupts on the desired pins
   */
void vectorInterrupts() {
	
	// disable external interrupts temporarily
	EIMSK &= 0b10000000;
 280:	8d b3       	in	r24, 0x1d	; 29
 282:	80 78       	andi	r24, 0x80	; 128
 284:	8d bb       	out	0x1d, r24	; 29
	
	// Set all interrupt pins to input
	DDRD = DDRD & 0xF0;
 286:	8a b1       	in	r24, 0x0a	; 10
 288:	80 7f       	andi	r24, 0xF0	; 240
 28a:	8a b9       	out	0x0a, r24	; 10
	DDRE = DDRE & 0x0F;
 28c:	8d b1       	in	r24, 0x0d	; 13
 28e:	8f 70       	andi	r24, 0x0F	; 15
 290:	8d b9       	out	0x0d, r24	; 13
	
	// INT0 - First Laser
	// Falling-edge interrupt
	EICRA |= _BV(ISC01);
 292:	e9 e6       	ldi	r30, 0x69	; 105
 294:	f0 e0       	ldi	r31, 0x00	; 0
 296:	80 81       	ld	r24, Z
 298:	82 60       	ori	r24, 0x02	; 2
 29a:	80 83       	st	Z, r24
	EICRA &= ~(_BV(ISC00));
 29c:	80 81       	ld	r24, Z
 29e:	8e 7f       	andi	r24, 0xFE	; 254
 2a0:	80 83       	st	Z, r24
	
	// INT1 - Metal Detector
	// Falling-edge interrupt
	EICRA |= _BV(ISC11);
 2a2:	80 81       	ld	r24, Z
 2a4:	88 60       	ori	r24, 0x08	; 8
 2a6:	80 83       	st	Z, r24
	EICRA &= ~(_BV(ISC10));
 2a8:	80 81       	ld	r24, Z
 2aa:	8b 7f       	andi	r24, 0xFB	; 251
 2ac:	80 83       	st	Z, r24
	
	// INT2 - Second Laser
	// Rising and falling edge interrupt
	EICRA &= ~(_BV(ISC21));
 2ae:	80 81       	ld	r24, Z
 2b0:	8f 7d       	andi	r24, 0xDF	; 223
 2b2:	80 83       	st	Z, r24
	EICRA |= _BV(ISC20);
 2b4:	80 81       	ld	r24, Z
 2b6:	80 61       	ori	r24, 0x10	; 16
 2b8:	80 83       	st	Z, r24
	
	// INT3 - Exit Sensor
	// Falling-edge interrupt
	EICRA |= _BV(ISC31);
 2ba:	80 81       	ld	r24, Z
 2bc:	80 68       	ori	r24, 0x80	; 128
 2be:	80 83       	st	Z, r24
	EICRA &= ~(_BV(ISC30));	
 2c0:	80 81       	ld	r24, Z
 2c2:	8f 7b       	andi	r24, 0xBF	; 191
 2c4:	80 83       	st	Z, r24
	
	// INT4 - Hall-effect sensor
	// Falling-edge interrupt
	EICRB |= _BV(ISC41);
 2c6:	ea e6       	ldi	r30, 0x6A	; 106
 2c8:	f0 e0       	ldi	r31, 0x00	; 0
 2ca:	80 81       	ld	r24, Z
 2cc:	82 60       	ori	r24, 0x02	; 2
 2ce:	80 83       	st	Z, r24
	EICRB &= ~(_BV(ISC40));
 2d0:	80 81       	ld	r24, Z
 2d2:	8e 7f       	andi	r24, 0xFE	; 254
 2d4:	80 83       	st	Z, r24
	
	// INT5 - Button2
	// Falling-edge interrupt
	EICRB |= _BV(ISC51);
 2d6:	80 81       	ld	r24, Z
 2d8:	88 60       	ori	r24, 0x08	; 8
 2da:	80 83       	st	Z, r24
	EICRB &= ~(_BV(ISC50));
 2dc:	80 81       	ld	r24, Z
 2de:	8b 7f       	andi	r24, 0xFB	; 251
 2e0:	80 83       	st	Z, r24
	
	// INT6 - Button1
	// Falling-edge interrupt
	EICRB |= _BV(ISC61);
 2e2:	80 81       	ld	r24, Z
 2e4:	80 62       	ori	r24, 0x20	; 32
 2e6:	80 83       	st	Z, r24
	EICRB &= ~(_BV(ISC60));
 2e8:	80 81       	ld	r24, Z
 2ea:	8f 7e       	andi	r24, 0xEF	; 239
 2ec:	80 83       	st	Z, r24
	
	
	// Enable interrupts
	EIMSK |= 0b01111111;
 2ee:	8d b3       	in	r24, 0x1d	; 29
 2f0:	8f 67       	ori	r24, 0x7F	; 127
 2f2:	8d bb       	out	0x1d, r24	; 29
	EIFR |= 0b01111111;
 2f4:	8c b3       	in	r24, 0x1c	; 28
 2f6:	8f 67       	ori	r24, 0x7F	; 127
 2f8:	8c bb       	out	0x1c, r24	; 28
	sei();
 2fa:	78 94       	sei
}
 2fc:	08 95       	ret

000002fe <makeDecision>:

void makeDecision(int index) {
	if(ringBuf[index].reflSamples < REFL_MIN_SAMPLES) return; // TODO: goes to error
 2fe:	fc 01       	movw	r30, r24
 300:	ee 0f       	add	r30, r30
 302:	ff 1f       	adc	r31, r31
 304:	e8 0f       	add	r30, r24
 306:	f9 1f       	adc	r31, r25
 308:	ee 0f       	add	r30, r30
 30a:	ff 1f       	adc	r31, r31
 30c:	e3 5f       	subi	r30, 0xF3	; 243
 30e:	fe 4f       	sbci	r31, 0xFE	; 254
 310:	24 81       	ldd	r18, Z+4	; 0x04
 312:	35 81       	ldd	r19, Z+5	; 0x05
 314:	25 30       	cpi	r18, 0x05	; 5
 316:	31 05       	cpc	r19, r1
 318:	e4 f0       	brlt	.+56     	; 0x352 <makeDecision+0x54>
	char refl = ringBuf[index].avgRefl;
 31a:	fc 01       	movw	r30, r24
 31c:	ee 0f       	add	r30, r30
 31e:	ff 1f       	adc	r31, r31
 320:	e8 0f       	add	r30, r24
 322:	f9 1f       	adc	r31, r25
 324:	ee 0f       	add	r30, r30
 326:	ff 1f       	adc	r31, r31
 328:	e3 5f       	subi	r30, 0xF3	; 243
 32a:	fe 4f       	sbci	r31, 0xFE	; 254
 32c:	32 81       	ldd	r19, Z+2	; 0x02
	if(ringBuf[index].metal == 1) {
 32e:	21 81       	ldd	r18, Z+1	; 0x01
 330:	21 30       	cpi	r18, 0x01	; 1
 332:	79 f4       	brne	.+30     	; 0x352 <makeDecision+0x54>
		if((refl < STEEL_MAX) && (refl > STEEL_MIN)) {
			ringBuf[index].type = STEEL;
		}
		if((refl < ALUMINUM_MAX) && (refl > ALUMINUM_MIN)) {
 334:	30 54       	subi	r19, 0x40	; 64
 336:	30 31       	cpi	r19, 0x10	; 16
 338:	60 f4       	brcc	.+24     	; 0x352 <makeDecision+0x54>
			ringBuf[index].type = ALUMINUM;
 33a:	fc 01       	movw	r30, r24
 33c:	ee 0f       	add	r30, r30
 33e:	ff 1f       	adc	r31, r31
 340:	8e 0f       	add	r24, r30
 342:	9f 1f       	adc	r25, r31
 344:	fc 01       	movw	r30, r24
 346:	ee 0f       	add	r30, r30
 348:	ff 1f       	adc	r31, r31
 34a:	e3 5f       	subi	r30, 0xF3	; 243
 34c:	fe 4f       	sbci	r31, 0xFE	; 254
 34e:	84 e0       	ldi	r24, 0x04	; 4
 350:	80 83       	st	Z, r24
 352:	08 95       	ret

00000354 <firstLaserHandler>:

/* void firstLaserHandler()
   Purpose: handler for the first laser
   */
void firstLaserHandler() {
	currentMetal = newRingBufItem();
 354:	0e 94 0a 04 	call	0x814	; 0x814 <newRingBufItem>
 358:	90 93 90 02 	sts	0x0290, r25
 35c:	80 93 8f 02 	sts	0x028F, r24
}
 360:	08 95       	ret

00000362 <metalHandler>:

/* void metalHandler()
   Purpose: handler for the inductive sensor
   */
void metalHandler() {
	ringBuf[currentMetal].metal = 1;
 362:	80 91 8f 02 	lds	r24, 0x028F
 366:	90 91 90 02 	lds	r25, 0x0290
 36a:	fc 01       	movw	r30, r24
 36c:	ee 0f       	add	r30, r30
 36e:	ff 1f       	adc	r31, r31
 370:	8e 0f       	add	r24, r30
 372:	9f 1f       	adc	r25, r31
 374:	fc 01       	movw	r30, r24
 376:	ee 0f       	add	r30, r30
 378:	ff 1f       	adc	r31, r31
 37a:	e3 5f       	subi	r30, 0xF3	; 243
 37c:	fe 4f       	sbci	r31, 0xFE	; 254
 37e:	81 e0       	ldi	r24, 0x01	; 1
 380:	81 83       	std	Z+1, r24	; 0x01
}
 382:	08 95       	ret

00000384 <secondLaserHandler>:
/* void secondLaserHandler()
   Purpose: on RE completes the inductive stage and starts
   the reflectivity stage.
   on FE completes the reflective stage */
void secondLaserHandler() {
	if(ADC_is_running == 1) {
 384:	80 91 04 01 	lds	r24, 0x0104
 388:	81 30       	cpi	r24, 0x01	; 1
 38a:	49 f4       	brne	.+18     	; 0x39e <secondLaserHandler+0x1a>
		// stop ADC
		stopADC();
 38c:	0e 94 8d 00 	call	0x11a	; 0x11a <stopADC>
		makeDecision(currentRefl);
 390:	80 91 09 01 	lds	r24, 0x0109
 394:	90 91 0a 01 	lds	r25, 0x010A
 398:	0e 94 7f 01 	call	0x2fe	; 0x2fe <makeDecision>
 39c:	08 95       	ret
		// TODO
	} else {
		currentRefl = currentMetal;
 39e:	80 91 8f 02 	lds	r24, 0x028F
 3a2:	90 91 90 02 	lds	r25, 0x0290
 3a6:	90 93 0a 01 	sts	0x010A, r25
 3aa:	80 93 09 01 	sts	0x0109, r24
		startADC();
 3ae:	0e 94 83 00 	call	0x106	; 0x106 <startADC>
 3b2:	08 95       	ret

000003b4 <exitHandler>:

/* void exitHandler()
   Purpose: handles the exit sensor
   */
void exitHandler() {
	writeDecInt(bufLength);
 3b4:	80 91 8d 02 	lds	r24, 0x028D
 3b8:	90 91 8e 02 	lds	r25, 0x028E
 3bc:	0e 94 9a 04 	call	0x934	; 0x934 <writeDecInt>
	// is there an item on the queue?
	if(bufLength==0) return; // Throw an error here
 3c0:	80 91 8d 02 	lds	r24, 0x028D
 3c4:	90 91 8e 02 	lds	r25, 0x028E
 3c8:	00 97       	sbiw	r24, 0x00	; 0
 3ca:	09 f4       	brne	.+2      	; 0x3ce <exitHandler+0x1a>
 3cc:	4a c0       	rjmp	.+148    	; 0x462 <exitHandler+0xae>
	// are we in position?
	switch(ringBuf[ringTop].type) {
 3ce:	80 91 0b 01 	lds	r24, 0x010B
 3d2:	90 91 0c 01 	lds	r25, 0x010C
 3d6:	fc 01       	movw	r30, r24
 3d8:	ee 0f       	add	r30, r30
 3da:	ff 1f       	adc	r31, r31
 3dc:	8e 0f       	add	r24, r30
 3de:	9f 1f       	adc	r25, r31
 3e0:	fc 01       	movw	r30, r24
 3e2:	ee 0f       	add	r30, r30
 3e4:	ff 1f       	adc	r31, r31
 3e6:	e3 5f       	subi	r30, 0xF3	; 243
 3e8:	fe 4f       	sbci	r31, 0xFE	; 254
 3ea:	80 81       	ld	r24, Z
 3ec:	82 30       	cpi	r24, 0x02	; 2
 3ee:	39 f1       	breq	.+78     	; 0x43e <exitHandler+0x8a>
 3f0:	83 30       	cpi	r24, 0x03	; 3
 3f2:	18 f4       	brcc	.+6      	; 0x3fa <exitHandler+0x46>
 3f4:	81 30       	cpi	r24, 0x01	; 1
 3f6:	69 f5       	brne	.+90     	; 0x452 <exitHandler+0x9e>
 3f8:	05 c0       	rjmp	.+10     	; 0x404 <exitHandler+0x50>
 3fa:	83 30       	cpi	r24, 0x03	; 3
 3fc:	61 f0       	breq	.+24     	; 0x416 <exitHandler+0x62>
 3fe:	84 30       	cpi	r24, 0x04	; 4
 400:	41 f5       	brne	.+80     	; 0x452 <exitHandler+0x9e>
 402:	13 c0       	rjmp	.+38     	; 0x42a <exitHandler+0x76>
		case BLACK:
			if(steps==BLACK_POSITION) {
 404:	80 91 93 02 	lds	r24, 0x0293
 408:	90 91 94 02 	lds	r25, 0x0294
 40c:	00 97       	sbiw	r24, 0x00	; 0
 40e:	09 f5       	brne	.+66     	; 0x452 <exitHandler+0x9e>
				popBuf();
 410:	0e 94 ee 03 	call	0x7dc	; 0x7dc <popBuf>
				return;
 414:	08 95       	ret
			}
			break;
		case STEEL:
			if(steps==STEEL_POSITION) {
 416:	80 91 93 02 	lds	r24, 0x0293
 41a:	90 91 94 02 	lds	r25, 0x0294
 41e:	86 39       	cpi	r24, 0x96	; 150
 420:	91 05       	cpc	r25, r1
 422:	b9 f4       	brne	.+46     	; 0x452 <exitHandler+0x9e>
				popBuf();
 424:	0e 94 ee 03 	call	0x7dc	; 0x7dc <popBuf>
				return;
 428:	08 95       	ret
			}
			break;
		case ALUMINUM:
			if(steps==ALUMINUM_POSIITION) {
 42a:	80 91 93 02 	lds	r24, 0x0293
 42e:	90 91 94 02 	lds	r25, 0x0294
 432:	82 33       	cpi	r24, 0x32	; 50
 434:	91 05       	cpc	r25, r1
 436:	69 f4       	brne	.+26     	; 0x452 <exitHandler+0x9e>
				popBuf();
 438:	0e 94 ee 03 	call	0x7dc	; 0x7dc <popBuf>
				return;
 43c:	08 95       	ret
			}
			break;
		case WHITE:
			if(steps==WHITE_POSITION) {
 43e:	80 91 93 02 	lds	r24, 0x0293
 442:	90 91 94 02 	lds	r25, 0x0294
 446:	84 36       	cpi	r24, 0x64	; 100
 448:	91 05       	cpc	r25, r1
 44a:	19 f4       	brne	.+6      	; 0x452 <exitHandler+0x9e>
				popBuf();
 44c:	0e 94 ee 03 	call	0x7dc	; 0x7dc <popBuf>
				return;
 450:	08 95       	ret
		default:
			break;
	}			
	// we got here, so we're not at the correct position yet.
	// stop the motor
	setMotorBrake();
 452:	0e 94 37 01 	call	0x26e	; 0x26e <setMotorBrake>
	// set a flag to let the stepper know we're waiting
	motorWaitForStepper = 1;
 456:	81 e0       	ldi	r24, 0x01	; 1
 458:	90 e0       	ldi	r25, 0x00	; 0
 45a:	90 93 06 01 	sts	0x0106, r25
 45e:	80 93 05 01 	sts	0x0105, r24
 462:	08 95       	ret

00000464 <__vector_1>:

/* ISR(INT0_vect)
   Purpose: Falling-edge interrupt vector
   for FIRST LASER
   */
ISR(INT0_vect){
 464:	1f 92       	push	r1
 466:	0f 92       	push	r0
 468:	0f b6       	in	r0, 0x3f	; 63
 46a:	0f 92       	push	r0
 46c:	0b b6       	in	r0, 0x3b	; 59
 46e:	0f 92       	push	r0
 470:	11 24       	eor	r1, r1
 472:	2f 93       	push	r18
 474:	3f 93       	push	r19
 476:	4f 93       	push	r20
 478:	5f 93       	push	r21
 47a:	6f 93       	push	r22
 47c:	7f 93       	push	r23
 47e:	8f 93       	push	r24
 480:	9f 93       	push	r25
 482:	af 93       	push	r26
 484:	bf 93       	push	r27
 486:	ef 93       	push	r30
 488:	ff 93       	push	r31
	firstLaserHandler();
 48a:	0e 94 aa 01 	call	0x354	; 0x354 <firstLaserHandler>
}
 48e:	ff 91       	pop	r31
 490:	ef 91       	pop	r30
 492:	bf 91       	pop	r27
 494:	af 91       	pop	r26
 496:	9f 91       	pop	r25
 498:	8f 91       	pop	r24
 49a:	7f 91       	pop	r23
 49c:	6f 91       	pop	r22
 49e:	5f 91       	pop	r21
 4a0:	4f 91       	pop	r20
 4a2:	3f 91       	pop	r19
 4a4:	2f 91       	pop	r18
 4a6:	0f 90       	pop	r0
 4a8:	0b be       	out	0x3b, r0	; 59
 4aa:	0f 90       	pop	r0
 4ac:	0f be       	out	0x3f, r0	; 63
 4ae:	0f 90       	pop	r0
 4b0:	1f 90       	pop	r1
 4b2:	18 95       	reti

000004b4 <__vector_2>:

/* ISR(INT1_vect)
   Purpose: Falling-edge interrupt vector
   for INDUCTIVE SENSOR
   */
ISR(INT1_vect){
 4b4:	1f 92       	push	r1
 4b6:	0f 92       	push	r0
 4b8:	0f b6       	in	r0, 0x3f	; 63
 4ba:	0f 92       	push	r0
 4bc:	0b b6       	in	r0, 0x3b	; 59
 4be:	0f 92       	push	r0
 4c0:	11 24       	eor	r1, r1
 4c2:	2f 93       	push	r18
 4c4:	3f 93       	push	r19
 4c6:	4f 93       	push	r20
 4c8:	5f 93       	push	r21
 4ca:	6f 93       	push	r22
 4cc:	7f 93       	push	r23
 4ce:	8f 93       	push	r24
 4d0:	9f 93       	push	r25
 4d2:	af 93       	push	r26
 4d4:	bf 93       	push	r27
 4d6:	ef 93       	push	r30
 4d8:	ff 93       	push	r31
	metalHandler();
 4da:	0e 94 b1 01 	call	0x362	; 0x362 <metalHandler>
}
 4de:	ff 91       	pop	r31
 4e0:	ef 91       	pop	r30
 4e2:	bf 91       	pop	r27
 4e4:	af 91       	pop	r26
 4e6:	9f 91       	pop	r25
 4e8:	8f 91       	pop	r24
 4ea:	7f 91       	pop	r23
 4ec:	6f 91       	pop	r22
 4ee:	5f 91       	pop	r21
 4f0:	4f 91       	pop	r20
 4f2:	3f 91       	pop	r19
 4f4:	2f 91       	pop	r18
 4f6:	0f 90       	pop	r0
 4f8:	0b be       	out	0x3b, r0	; 59
 4fa:	0f 90       	pop	r0
 4fc:	0f be       	out	0x3f, r0	; 63
 4fe:	0f 90       	pop	r0
 500:	1f 90       	pop	r1
 502:	18 95       	reti

00000504 <__vector_3>:

/* ISR(INT2_vect)
   Purpose: Rising and falling-edge interrupt
   vector for SECOND LASER
   */
ISR(INT2_vect){
 504:	1f 92       	push	r1
 506:	0f 92       	push	r0
 508:	0f b6       	in	r0, 0x3f	; 63
 50a:	0f 92       	push	r0
 50c:	0b b6       	in	r0, 0x3b	; 59
 50e:	0f 92       	push	r0
 510:	11 24       	eor	r1, r1
 512:	2f 93       	push	r18
 514:	3f 93       	push	r19
 516:	4f 93       	push	r20
 518:	5f 93       	push	r21
 51a:	6f 93       	push	r22
 51c:	7f 93       	push	r23
 51e:	8f 93       	push	r24
 520:	9f 93       	push	r25
 522:	af 93       	push	r26
 524:	bf 93       	push	r27
 526:	ef 93       	push	r30
 528:	ff 93       	push	r31
	secondLaserHandler();
 52a:	0e 94 c2 01 	call	0x384	; 0x384 <secondLaserHandler>
}
 52e:	ff 91       	pop	r31
 530:	ef 91       	pop	r30
 532:	bf 91       	pop	r27
 534:	af 91       	pop	r26
 536:	9f 91       	pop	r25
 538:	8f 91       	pop	r24
 53a:	7f 91       	pop	r23
 53c:	6f 91       	pop	r22
 53e:	5f 91       	pop	r21
 540:	4f 91       	pop	r20
 542:	3f 91       	pop	r19
 544:	2f 91       	pop	r18
 546:	0f 90       	pop	r0
 548:	0b be       	out	0x3b, r0	; 59
 54a:	0f 90       	pop	r0
 54c:	0f be       	out	0x3f, r0	; 63
 54e:	0f 90       	pop	r0
 550:	1f 90       	pop	r1
 552:	18 95       	reti

00000554 <__vector_4>:

/* ISR(INT3_vect)
   Purpose: Falling-edge interrupt vector
   for EXIT SENSOR
   */
ISR(INT3_vect) {
 554:	1f 92       	push	r1
 556:	0f 92       	push	r0
 558:	0f b6       	in	r0, 0x3f	; 63
 55a:	0f 92       	push	r0
 55c:	0b b6       	in	r0, 0x3b	; 59
 55e:	0f 92       	push	r0
 560:	11 24       	eor	r1, r1
 562:	2f 93       	push	r18
 564:	3f 93       	push	r19
 566:	4f 93       	push	r20
 568:	5f 93       	push	r21
 56a:	6f 93       	push	r22
 56c:	7f 93       	push	r23
 56e:	8f 93       	push	r24
 570:	9f 93       	push	r25
 572:	af 93       	push	r26
 574:	bf 93       	push	r27
 576:	ef 93       	push	r30
 578:	ff 93       	push	r31
	exitHandler();
 57a:	0e 94 da 01 	call	0x3b4	; 0x3b4 <exitHandler>
}
 57e:	ff 91       	pop	r31
 580:	ef 91       	pop	r30
 582:	bf 91       	pop	r27
 584:	af 91       	pop	r26
 586:	9f 91       	pop	r25
 588:	8f 91       	pop	r24
 58a:	7f 91       	pop	r23
 58c:	6f 91       	pop	r22
 58e:	5f 91       	pop	r21
 590:	4f 91       	pop	r20
 592:	3f 91       	pop	r19
 594:	2f 91       	pop	r18
 596:	0f 90       	pop	r0
 598:	0b be       	out	0x3b, r0	; 59
 59a:	0f 90       	pop	r0
 59c:	0f be       	out	0x3f, r0	; 63
 59e:	0f 90       	pop	r0
 5a0:	1f 90       	pop	r1
 5a2:	18 95       	reti

000005a4 <__vector_5>:

/* ISR(INT4_vect)
   Purpose: Falling-edge interrupt vector
   for HALL EFFECT SENSOR
   */
ISR(INT4_vect) {
 5a4:	1f 92       	push	r1
 5a6:	0f 92       	push	r0
 5a8:	0f b6       	in	r0, 0x3f	; 63
 5aa:	0f 92       	push	r0
 5ac:	11 24       	eor	r1, r1
 5ae:	8f 93       	push	r24
	hallLow = 1;
 5b0:	81 e0       	ldi	r24, 0x01	; 1
 5b2:	80 93 95 02 	sts	0x0295, r24
}
 5b6:	8f 91       	pop	r24
 5b8:	0f 90       	pop	r0
 5ba:	0f be       	out	0x3f, r0	; 63
 5bc:	0f 90       	pop	r0
 5be:	1f 90       	pop	r1
 5c0:	18 95       	reti

000005c2 <__vector_6>:

/* ISR(INT5_vect)
   Purpose: Falling-edge interrupt vector
   for BUTTON 2
   */
ISR(INT5_vect) {
 5c2:	1f 92       	push	r1
 5c4:	0f 92       	push	r0
 5c6:	0f b6       	in	r0, 0x3f	; 63
 5c8:	0f 92       	push	r0
 5ca:	0b b6       	in	r0, 0x3b	; 59
 5cc:	0f 92       	push	r0
 5ce:	11 24       	eor	r1, r1
 5d0:	2f 93       	push	r18
 5d2:	3f 93       	push	r19
 5d4:	4f 93       	push	r20
 5d6:	5f 93       	push	r21
 5d8:	6f 93       	push	r22
 5da:	7f 93       	push	r23
 5dc:	8f 93       	push	r24
 5de:	9f 93       	push	r25
 5e0:	af 93       	push	r26
 5e2:	bf 93       	push	r27
 5e4:	ef 93       	push	r30
 5e6:	ff 93       	push	r31
	writeDecInt(5);
 5e8:	85 e0       	ldi	r24, 0x05	; 5
 5ea:	90 e0       	ldi	r25, 0x00	; 0
 5ec:	0e 94 9a 04 	call	0x934	; 0x934 <writeDecInt>
}
 5f0:	ff 91       	pop	r31
 5f2:	ef 91       	pop	r30
 5f4:	bf 91       	pop	r27
 5f6:	af 91       	pop	r26
 5f8:	9f 91       	pop	r25
 5fa:	8f 91       	pop	r24
 5fc:	7f 91       	pop	r23
 5fe:	6f 91       	pop	r22
 600:	5f 91       	pop	r21
 602:	4f 91       	pop	r20
 604:	3f 91       	pop	r19
 606:	2f 91       	pop	r18
 608:	0f 90       	pop	r0
 60a:	0b be       	out	0x3b, r0	; 59
 60c:	0f 90       	pop	r0
 60e:	0f be       	out	0x3f, r0	; 63
 610:	0f 90       	pop	r0
 612:	1f 90       	pop	r1
 614:	18 95       	reti

00000616 <__vector_7>:

/* ISR(INT6_vect)
   Purpose: Falling-edge interrupt vector
   for BUTTON 1
   */
ISR(INT6_vect){
 616:	1f 92       	push	r1
 618:	0f 92       	push	r0
 61a:	0f b6       	in	r0, 0x3f	; 63
 61c:	0f 92       	push	r0
 61e:	0b b6       	in	r0, 0x3b	; 59
 620:	0f 92       	push	r0
 622:	11 24       	eor	r1, r1
 624:	2f 93       	push	r18
 626:	3f 93       	push	r19
 628:	4f 93       	push	r20
 62a:	5f 93       	push	r21
 62c:	6f 93       	push	r22
 62e:	7f 93       	push	r23
 630:	8f 93       	push	r24
 632:	9f 93       	push	r25
 634:	af 93       	push	r26
 636:	bf 93       	push	r27
 638:	ef 93       	push	r30
 63a:	ff 93       	push	r31
	writeDecInt(6);
 63c:	86 e0       	ldi	r24, 0x06	; 6
 63e:	90 e0       	ldi	r25, 0x00	; 0
 640:	0e 94 9a 04 	call	0x934	; 0x934 <writeDecInt>
 644:	ff 91       	pop	r31
 646:	ef 91       	pop	r30
 648:	bf 91       	pop	r27
 64a:	af 91       	pop	r26
 64c:	9f 91       	pop	r25
 64e:	8f 91       	pop	r24
 650:	7f 91       	pop	r23
 652:	6f 91       	pop	r22
 654:	5f 91       	pop	r21
 656:	4f 91       	pop	r20
 658:	3f 91       	pop	r19
 65a:	2f 91       	pop	r18
 65c:	0f 90       	pop	r0
 65e:	0b be       	out	0x3b, r0	; 59
 660:	0f 90       	pop	r0
 662:	0f be       	out	0x3f, r0	; 63
 664:	0f 90       	pop	r0
 666:	1f 90       	pop	r1
 668:	18 95       	reti

0000066a <main>:

int main(void)
{
	// Set the dev board's clock speed to the external oscillator with
	// no prescaler (8MHz)
	CLKPR = (1<<CLKPCE);
 66a:	e1 e6       	ldi	r30, 0x61	; 97
 66c:	f0 e0       	ldi	r31, 0x00	; 0
 66e:	80 e8       	ldi	r24, 0x80	; 128
 670:	80 83       	st	Z, r24
	CLKPR = 0;
 672:	10 82       	st	Z, r1
	
	// Initialize hardware timer
	initializeTimer();
 674:	0e 94 e4 05 	call	0xbc8	; 0xbc8 <initializeTimer>
	
	delaynms(1000);
 678:	88 ee       	ldi	r24, 0xE8	; 232
 67a:	93 e0       	ldi	r25, 0x03	; 3
 67c:	0e 94 ea 05 	call	0xbd4	; 0xbd4 <delaynms>
	
	writeHexInt(0x50);
 680:	80 e5       	ldi	r24, 0x50	; 80
 682:	90 e0       	ldi	r25, 0x00	; 0
 684:	0e 94 bb 04 	call	0x976	; 0x976 <writeHexInt>
	
	// Initialize ring buffer
	initRingBuf();
 688:	0e 94 cc 03 	call	0x798	; 0x798 <initRingBuf>
	
	writeHexInt(0x51);
 68c:	81 e5       	ldi	r24, 0x51	; 81
 68e:	90 e0       	ldi	r25, 0x00	; 0
 690:	0e 94 bb 04 	call	0x976	; 0x976 <writeHexInt>
	
	// enable output for stepper and display.
	DDRA = 0xFF;
 694:	8f ef       	ldi	r24, 0xFF	; 255
 696:	81 b9       	out	0x01, r24	; 1

	// vector interrupts
	vectorInterrupts();
 698:	0e 94 40 01 	call	0x280	; 0x280 <vectorInterrupts>
	
	writeHexInt(0x52);
 69c:	82 e5       	ldi	r24, 0x52	; 82
 69e:	90 e0       	ldi	r25, 0x00	; 0
 6a0:	0e 94 bb 04 	call	0x976	; 0x976 <writeHexInt>

	// init stepper
	initalizeStepper();
 6a4:	0e 94 e7 04 	call	0x9ce	; 0x9ce <initalizeStepper>
	
	writeHexInt(0x53);
 6a8:	83 e5       	ldi	r24, 0x53	; 83
 6aa:	90 e0       	ldi	r25, 0x00	; 0
 6ac:	0e 94 bb 04 	call	0x976	; 0x976 <writeHexInt>

	// zero stepper
	while(steps != 0){
 6b0:	80 91 93 02 	lds	r24, 0x0293
 6b4:	90 91 94 02 	lds	r25, 0x0294
 6b8:	00 97       	sbiw	r24, 0x00	; 0
 6ba:	89 f0       	breq	.+34     	; 0x6de <main+0x74>
		stepTime(20,0);
 6bc:	84 e1       	ldi	r24, 0x14	; 20
 6be:	90 e0       	ldi	r25, 0x00	; 0
 6c0:	60 e0       	ldi	r22, 0x00	; 0
 6c2:	0e 94 fb 04 	call	0x9f6	; 0x9f6 <stepTime>
		writeHexInt(steps);
 6c6:	80 91 93 02 	lds	r24, 0x0293
 6ca:	90 91 94 02 	lds	r25, 0x0294
 6ce:	0e 94 bb 04 	call	0x976	; 0x976 <writeHexInt>
	initalizeStepper();
	
	writeHexInt(0x53);

	// zero stepper
	while(steps != 0){
 6d2:	80 91 93 02 	lds	r24, 0x0293
 6d6:	90 91 94 02 	lds	r25, 0x0294
 6da:	00 97       	sbiw	r24, 0x00	; 0
 6dc:	79 f7       	brne	.-34     	; 0x6bc <main+0x52>
		stepTime(20,0);
		writeHexInt(steps);
	}
	// set steps from zero to 0 and respective position
	steps = BLACK_POSITION;
 6de:	10 92 94 02 	sts	0x0294, r1
 6e2:	10 92 93 02 	sts	0x0293, r1
	// reset hall effect check
	hallLow = 0;
 6e6:	10 92 95 02 	sts	0x0295, r1
	

	setupADC();
 6ea:	0e 94 6e 00 	call	0xdc	; 0xdc <setupADC>

	// wait one second
	delaynms(1000);
 6ee:	88 ee       	ldi	r24, 0xE8	; 232
 6f0:	93 e0       	ldi	r25, 0x03	; 3
 6f2:	0e 94 ea 05 	call	0xbd4	; 0xbd4 <delaynms>
	
	// start the motor
	setupMotor();
 6f6:	0e 94 18 01 	call	0x230	; 0x230 <setupMotor>
	writeHexInt(0x54);
 6fa:	84 e5       	ldi	r24, 0x54	; 84
 6fc:	90 e0       	ldi	r25, 0x00	; 0
 6fe:	0e 94 bb 04 	call	0x976	; 0x976 <writeHexInt>
	setMotorFwd();
 702:	0e 94 2d 01 	call	0x25a	; 0x25a <setMotorFwd>
	while(1);*/

	while(1) {
		// check the next item off the conveyer belt, rotate to the correct position
		if(bufLength > 0) {
			switch(ringBuf[ringTop].type) {
 706:	cd e0       	ldi	r28, 0x0D	; 13
 708:	d1 e0       	ldi	r29, 0x01	; 1
	setMotorBrake();
	while(1);*/

	while(1) {
		// check the next item off the conveyer belt, rotate to the correct position
		if(bufLength > 0) {
 70a:	40 91 8d 02 	lds	r20, 0x028D
 70e:	50 91 8e 02 	lds	r21, 0x028E
			switch(ringBuf[ringTop].type) {
 712:	80 91 0b 01 	lds	r24, 0x010B
 716:	90 91 0c 01 	lds	r25, 0x010C
 71a:	9c 01       	movw	r18, r24
 71c:	22 0f       	add	r18, r18
 71e:	33 1f       	adc	r19, r19
 720:	82 0f       	add	r24, r18
 722:	93 1f       	adc	r25, r19
 724:	fc 01       	movw	r30, r24
 726:	ee 0f       	add	r30, r30
 728:	ff 1f       	adc	r31, r31
 72a:	ec 0f       	add	r30, r28
 72c:	fd 1f       	adc	r31, r29
 72e:	80 81       	ld	r24, Z
	setMotorBrake();
	while(1);*/

	while(1) {
		// check the next item off the conveyer belt, rotate to the correct position
		if(bufLength > 0) {
 730:	14 16       	cp	r1, r20
 732:	15 06       	cpc	r1, r21
 734:	84 f5       	brge	.+96     	; 0x796 <main+0x12c>
			switch(ringBuf[ringTop].type) {
 736:	82 30       	cpi	r24, 0x02	; 2
 738:	99 f0       	breq	.+38     	; 0x760 <main+0xf6>
 73a:	83 30       	cpi	r24, 0x03	; 3
 73c:	18 f4       	brcc	.+6      	; 0x744 <main+0xda>
 73e:	81 30       	cpi	r24, 0x01	; 1
 740:	b9 f7       	brne	.-18     	; 0x730 <main+0xc6>
 742:	05 c0       	rjmp	.+10     	; 0x74e <main+0xe4>
 744:	83 30       	cpi	r24, 0x03	; 3
 746:	a9 f0       	breq	.+42     	; 0x772 <main+0x108>
 748:	84 30       	cpi	r24, 0x04	; 4
 74a:	91 f7       	brne	.-28     	; 0x730 <main+0xc6>
 74c:	1b c0       	rjmp	.+54     	; 0x784 <main+0x11a>
				case BLACK:
					stepperMoveTo(BLACK_POSITION);
 74e:	80 e0       	ldi	r24, 0x00	; 0
 750:	90 e0       	ldi	r25, 0x00	; 0
 752:	0e 94 93 05 	call	0xb26	; 0xb26 <stepperMoveTo>
					delaynms(500);
 756:	84 ef       	ldi	r24, 0xF4	; 244
 758:	91 e0       	ldi	r25, 0x01	; 1
 75a:	0e 94 ea 05 	call	0xbd4	; 0xbd4 <delaynms>
					break;
 75e:	d5 cf       	rjmp	.-86     	; 0x70a <main+0xa0>
				case WHITE:
					stepperMoveTo(WHITE_POSITION);
 760:	84 e6       	ldi	r24, 0x64	; 100
 762:	90 e0       	ldi	r25, 0x00	; 0
 764:	0e 94 93 05 	call	0xb26	; 0xb26 <stepperMoveTo>
					delaynms(500);
 768:	84 ef       	ldi	r24, 0xF4	; 244
 76a:	91 e0       	ldi	r25, 0x01	; 1
 76c:	0e 94 ea 05 	call	0xbd4	; 0xbd4 <delaynms>
					break;
 770:	cc cf       	rjmp	.-104    	; 0x70a <main+0xa0>
				case STEEL:
					stepperMoveTo(STEEL_POSITION);
 772:	86 e9       	ldi	r24, 0x96	; 150
 774:	90 e0       	ldi	r25, 0x00	; 0
 776:	0e 94 93 05 	call	0xb26	; 0xb26 <stepperMoveTo>
					delaynms(500);
 77a:	84 ef       	ldi	r24, 0xF4	; 244
 77c:	91 e0       	ldi	r25, 0x01	; 1
 77e:	0e 94 ea 05 	call	0xbd4	; 0xbd4 <delaynms>
					break;
 782:	c3 cf       	rjmp	.-122    	; 0x70a <main+0xa0>
				case ALUMINUM:
					stepperMoveTo(ALUMINUM_POSIITION);
 784:	82 e3       	ldi	r24, 0x32	; 50
 786:	90 e0       	ldi	r25, 0x00	; 0
 788:	0e 94 93 05 	call	0xb26	; 0xb26 <stepperMoveTo>
					delaynms(500);
 78c:	84 ef       	ldi	r24, 0xF4	; 244
 78e:	91 e0       	ldi	r25, 0x01	; 1
 790:	0e 94 ea 05 	call	0xbd4	; 0xbd4 <delaynms>
					break;
 794:	ba cf       	rjmp	.-140    	; 0x70a <main+0xa0>
 796:	ff cf       	rjmp	.-2      	; 0x796 <main+0x12c>

00000798 <initRingBuf>:

/* void initRingBuf()
   Purpose: initializes the ring buffer
   */
void initRingBuf() {
	ringTop = 0;
 798:	10 92 0c 01 	sts	0x010C, r1
 79c:	10 92 0b 01 	sts	0x010B, r1
	ringBottom = 0;
 7a0:	10 92 08 01 	sts	0x0108, r1
 7a4:	10 92 07 01 	sts	0x0107, r1
	currentMetal = 0;
 7a8:	10 92 90 02 	sts	0x0290, r1
 7ac:	10 92 8f 02 	sts	0x028F, r1
	currentRefl = 0;
 7b0:	10 92 0a 01 	sts	0x010A, r1
 7b4:	10 92 09 01 	sts	0x0109, r1
	bufLength = 0;
 7b8:	10 92 8e 02 	sts	0x028E, r1
 7bc:	10 92 8d 02 	sts	0x028D, r1
}
 7c0:	08 95       	ret

000007c2 <getBufOffset>:
   Purpose: gets the index which is an integer offset of the given
   index.
   */
int getBufOffset(int index, int offset) {
	// case for wrapping around top end
	if((index + offset) > (RING_BUF_SIZE - 1)) {
 7c2:	86 0f       	add	r24, r22
 7c4:	97 1f       	adc	r25, r23
 7c6:	80 34       	cpi	r24, 0x40	; 64
 7c8:	91 05       	cpc	r25, r1
 7ca:	1c f0       	brlt	.+6      	; 0x7d2 <getBufOffset+0x10>
		return ((index + offset) - RING_BUF_SIZE);
 7cc:	80 54       	subi	r24, 0x40	; 64
 7ce:	90 40       	sbci	r25, 0x00	; 0
 7d0:	08 95       	ret
	}
	// case for wrapping around bottom end
	if((index + offset) < 0) {
 7d2:	99 23       	and	r25, r25
 7d4:	14 f4       	brge	.+4      	; 0x7da <getBufOffset+0x18>
		return ((index + offset) + RING_BUF_SIZE);
 7d6:	80 5c       	subi	r24, 0xC0	; 192
 7d8:	9f 4f       	sbci	r25, 0xFF	; 255
	}

	// didn't wrap
	return (index + offset);
 7da:	08 95       	ret

000007dc <popBuf>:
}

/* void popBuf()
   Purpose: pops the top item off the buffer
   */
void popBuf() {
 7dc:	cf 93       	push	r28
 7de:	df 93       	push	r29
	// if the buffer is empty, break
	if (bufLength == 0) return;
 7e0:	c0 91 8d 02 	lds	r28, 0x028D
 7e4:	d0 91 8e 02 	lds	r29, 0x028E
 7e8:	20 97       	sbiw	r28, 0x00	; 0
 7ea:	89 f0       	breq	.+34     	; 0x80e <popBuf+0x32>
	ringTop = getBufOffset(ringTop, 1);
 7ec:	80 91 0b 01 	lds	r24, 0x010B
 7f0:	90 91 0c 01 	lds	r25, 0x010C
 7f4:	61 e0       	ldi	r22, 0x01	; 1
 7f6:	70 e0       	ldi	r23, 0x00	; 0
 7f8:	0e 94 e1 03 	call	0x7c2	; 0x7c2 <getBufOffset>
 7fc:	90 93 0c 01 	sts	0x010C, r25
 800:	80 93 0b 01 	sts	0x010B, r24
	bufLength--;
 804:	21 97       	sbiw	r28, 0x01	; 1
 806:	d0 93 8e 02 	sts	0x028E, r29
 80a:	c0 93 8d 02 	sts	0x028D, r28
}
 80e:	df 91       	pop	r29
 810:	cf 91       	pop	r28
 812:	08 95       	ret

00000814 <newRingBufItem>:

/* int newRingBufItem()
   Purpose: adds an item to the ring buffer and returns its index
   */
int newRingBufItem() {
	ringBottom = getBufOffset(ringBottom, 1);
 814:	80 91 07 01 	lds	r24, 0x0107
 818:	90 91 08 01 	lds	r25, 0x0108
 81c:	61 e0       	ldi	r22, 0x01	; 1
 81e:	70 e0       	ldi	r23, 0x00	; 0
 820:	0e 94 e1 03 	call	0x7c2	; 0x7c2 <getBufOffset>
 824:	90 93 08 01 	sts	0x0108, r25
 828:	80 93 07 01 	sts	0x0107, r24
	bufLength++;
 82c:	20 91 8d 02 	lds	r18, 0x028D
 830:	30 91 8e 02 	lds	r19, 0x028E
 834:	2f 5f       	subi	r18, 0xFF	; 255
 836:	3f 4f       	sbci	r19, 0xFF	; 255
 838:	30 93 8e 02 	sts	0x028E, r19
 83c:	20 93 8d 02 	sts	0x028D, r18
	ringBuf[ringBottom].avgRefl = 0;
 840:	fc 01       	movw	r30, r24
 842:	ee 0f       	add	r30, r30
 844:	ff 1f       	adc	r31, r31
 846:	8e 0f       	add	r24, r30
 848:	9f 1f       	adc	r25, r31
 84a:	fc 01       	movw	r30, r24
 84c:	ee 0f       	add	r30, r30
 84e:	ff 1f       	adc	r31, r31
 850:	e3 5f       	subi	r30, 0xF3	; 243
 852:	fe 4f       	sbci	r31, 0xFE	; 254
 854:	13 82       	std	Z+3, r1	; 0x03
 856:	12 82       	std	Z+2, r1	; 0x02
	ringBuf[ringBottom].reflSamples = 0;
 858:	15 82       	std	Z+5, r1	; 0x05
 85a:	14 82       	std	Z+4, r1	; 0x04
	ringBuf[ringBottom].metal = 0;
 85c:	11 82       	std	Z+1, r1	; 0x01
	ringBuf[ringBottom].type = UNDEF;
 85e:	10 82       	st	Z, r1
	writeDecInt(bufLength);
 860:	c9 01       	movw	r24, r18
 862:	0e 94 9a 04 	call	0x934	; 0x934 <writeDecInt>
	return ringBottom;
}
 866:	80 91 07 01 	lds	r24, 0x0107
 86a:	90 91 08 01 	lds	r25, 0x0108
 86e:	08 95       	ret

00000870 <getPatFomHex>:
   Purpose: looks up the appropriate pattern for 
   the seven segment display for a given number.
   If input is not between 0-F, returns blank pattern
   */
char getPatFomHex(char number) {
	switch(number) {
 870:	87 30       	cpi	r24, 0x07	; 7
 872:	71 f1       	breq	.+92     	; 0x8d0 <getPatFomHex+0x60>
 874:	88 30       	cpi	r24, 0x08	; 8
 876:	70 f4       	brcc	.+28     	; 0x894 <getPatFomHex+0x24>
 878:	83 30       	cpi	r24, 0x03	; 3
 87a:	11 f1       	breq	.+68     	; 0x8c0 <getPatFomHex+0x50>
 87c:	84 30       	cpi	r24, 0x04	; 4
 87e:	28 f4       	brcc	.+10     	; 0x88a <getPatFomHex+0x1a>
 880:	81 30       	cpi	r24, 0x01	; 1
 882:	d1 f1       	breq	.+116    	; 0x8f8 <getPatFomHex+0x88>
 884:	82 30       	cpi	r24, 0x02	; 2
 886:	d0 f4       	brcc	.+52     	; 0x8bc <getPatFomHex+0x4c>
 888:	17 c0       	rjmp	.+46     	; 0x8b8 <getPatFomHex+0x48>
 88a:	85 30       	cpi	r24, 0x05	; 5
 88c:	e9 f0       	breq	.+58     	; 0x8c8 <getPatFomHex+0x58>
 88e:	86 30       	cpi	r24, 0x06	; 6
 890:	e8 f4       	brcc	.+58     	; 0x8cc <getPatFomHex+0x5c>
 892:	18 c0       	rjmp	.+48     	; 0x8c4 <getPatFomHex+0x54>
 894:	8b 30       	cpi	r24, 0x0B	; 11
 896:	21 f1       	breq	.+72     	; 0x8e0 <getPatFomHex+0x70>
 898:	8c 30       	cpi	r24, 0x0C	; 12
 89a:	28 f4       	brcc	.+10     	; 0x8a6 <getPatFomHex+0x36>
 89c:	89 30       	cpi	r24, 0x09	; 9
 89e:	e1 f0       	breq	.+56     	; 0x8d8 <getPatFomHex+0x68>
 8a0:	8a 30       	cpi	r24, 0x0A	; 10
 8a2:	e0 f4       	brcc	.+56     	; 0x8dc <getPatFomHex+0x6c>
 8a4:	17 c0       	rjmp	.+46     	; 0x8d4 <getPatFomHex+0x64>
 8a6:	8d 30       	cpi	r24, 0x0D	; 13
 8a8:	f9 f0       	breq	.+62     	; 0x8e8 <getPatFomHex+0x78>
 8aa:	8d 30       	cpi	r24, 0x0D	; 13
 8ac:	d8 f0       	brcs	.+54     	; 0x8e4 <getPatFomHex+0x74>
 8ae:	8e 30       	cpi	r24, 0x0E	; 14
 8b0:	e9 f0       	breq	.+58     	; 0x8ec <getPatFomHex+0x7c>
 8b2:	8f 30       	cpi	r24, 0x0F	; 15
 8b4:	f9 f4       	brne	.+62     	; 0x8f4 <getPatFomHex+0x84>
 8b6:	1c c0       	rjmp	.+56     	; 0x8f0 <getPatFomHex+0x80>
		case 0:
			return 0b11111100;
 8b8:	8c ef       	ldi	r24, 0xFC	; 252
 8ba:	08 95       	ret
			break;
		case 1:
			return 0b01100000;
			break;
		case 2:
			return 0b11011010;
 8bc:	8a ed       	ldi	r24, 0xDA	; 218
 8be:	08 95       	ret
			break;
		case 3:
			return 0b11110010;
 8c0:	82 ef       	ldi	r24, 0xF2	; 242
 8c2:	08 95       	ret
			break;
		case 4:
			return 0b01100110;
 8c4:	86 e6       	ldi	r24, 0x66	; 102
 8c6:	08 95       	ret
			break;
		case 5:
			return 0b10110110;
 8c8:	86 eb       	ldi	r24, 0xB6	; 182
 8ca:	08 95       	ret
			break;
		case 6:
			return 0b10111110;
 8cc:	8e eb       	ldi	r24, 0xBE	; 190
 8ce:	08 95       	ret
			break;
		case 7:
			return 0b11100000;
 8d0:	80 ee       	ldi	r24, 0xE0	; 224
 8d2:	08 95       	ret
			break;
		case 8:
			return 0b11111110;
 8d4:	8e ef       	ldi	r24, 0xFE	; 254
 8d6:	08 95       	ret
			break;
		case 9:
			return 0b11100110;
 8d8:	86 ee       	ldi	r24, 0xE6	; 230
 8da:	08 95       	ret
			break;
		case 10:
			return 0b11101110;
 8dc:	8e ee       	ldi	r24, 0xEE	; 238
 8de:	08 95       	ret
			break;
		case 11:
			return 0b00111110;
 8e0:	8e e3       	ldi	r24, 0x3E	; 62
 8e2:	08 95       	ret
			break;
		case 12:
			return 0b10011100;
 8e4:	8c e9       	ldi	r24, 0x9C	; 156
 8e6:	08 95       	ret
			break;
		case 13:
			return 0b01111010;
 8e8:	8a e7       	ldi	r24, 0x7A	; 122
 8ea:	08 95       	ret
			break;
		case 14:
			return 0b10011110;
 8ec:	8e e9       	ldi	r24, 0x9E	; 158
 8ee:	08 95       	ret
			break;
		case 15:
			return 0b10001110;
 8f0:	8e e8       	ldi	r24, 0x8E	; 142
 8f2:	08 95       	ret
		default:
			break;			
	}
	return 0x00;
 8f4:	80 e0       	ldi	r24, 0x00	; 0
 8f6:	08 95       	ret
	switch(number) {
		case 0:
			return 0b11111100;
			break;
		case 1:
			return 0b01100000;
 8f8:	80 e6       	ldi	r24, 0x60	; 96
			return 0b10001110;
		default:
			break;			
	}
	return 0x00;
}
 8fa:	08 95       	ret

000008fc <writePattern>:
/* void writePattern(char pattern)
   Purpose: Bit-bangs out an integer over
   the serial interface to the display
   */
void writePattern(char pattern) {
	for (int i=0; i<8; i++) {
 8fc:	20 e0       	ldi	r18, 0x00	; 0
 8fe:	30 e0       	ldi	r19, 0x00	; 0
		// assert the data
		char databit = 0x01 & (pattern >> i);
 900:	90 e0       	ldi	r25, 0x00	; 0
		PORTA = (PORTA & 0b10111111) | (databit << 6);
 902:	62 b1       	in	r22, 0x02	; 2
   the serial interface to the display
   */
void writePattern(char pattern) {
	for (int i=0; i<8; i++) {
		// assert the data
		char databit = 0x01 & (pattern >> i);
 904:	ac 01       	movw	r20, r24
 906:	02 2e       	mov	r0, r18
 908:	02 c0       	rjmp	.+4      	; 0x90e <writePattern+0x12>
 90a:	55 95       	asr	r21
 90c:	47 95       	ror	r20
 90e:	0a 94       	dec	r0
 910:	e2 f7       	brpl	.-8      	; 0x90a <writePattern+0xe>
 912:	41 70       	andi	r20, 0x01	; 1
		PORTA = (PORTA & 0b10111111) | (databit << 6);
 914:	42 95       	swap	r20
 916:	44 0f       	add	r20, r20
 918:	44 0f       	add	r20, r20
 91a:	40 7c       	andi	r20, 0xC0	; 192
 91c:	56 2f       	mov	r21, r22
 91e:	5f 7b       	andi	r21, 0xBF	; 191
 920:	45 2b       	or	r20, r21
 922:	42 b9       	out	0x02, r20	; 2
		// rising edge
		PORTA = (PORTA & 0b01111111) | 0b10000000;
 924:	17 9a       	sbi	0x02, 7	; 2
		// falling edge
		PORTA = (PORTA & 0b01111111);
 926:	17 98       	cbi	0x02, 7	; 2
/* void writePattern(char pattern)
   Purpose: Bit-bangs out an integer over
   the serial interface to the display
   */
void writePattern(char pattern) {
	for (int i=0; i<8; i++) {
 928:	2f 5f       	subi	r18, 0xFF	; 255
 92a:	3f 4f       	sbci	r19, 0xFF	; 255
 92c:	28 30       	cpi	r18, 0x08	; 8
 92e:	31 05       	cpc	r19, r1
 930:	41 f7       	brne	.-48     	; 0x902 <writePattern+0x6>
		// rising edge
		PORTA = (PORTA & 0b01111111) | 0b10000000;
		// falling edge
		PORTA = (PORTA & 0b01111111);
	}
}
 932:	08 95       	ret

00000934 <writeDecInt>:

/* void writeDecInt(int number)
   Purpose: fills the seven segment display with
   an integer number, formatted as decimal.
   */
void writeDecInt(int number) {
 934:	ef 92       	push	r14
 936:	ff 92       	push	r15
 938:	0f 93       	push	r16
 93a:	1f 93       	push	r17
 93c:	cf 93       	push	r28
 93e:	df 93       	push	r29
 940:	c3 e0       	ldi	r28, 0x03	; 3
 942:	d0 e0       	ldi	r29, 0x00	; 0
	for (int i=0; i < DISPLAY_DIGITS; i++) {
		writePattern(getPatFomHex(number % 10));
 944:	0f 2e       	mov	r0, r31
 946:	fa e0       	ldi	r31, 0x0A	; 10
 948:	ef 2e       	mov	r14, r31
 94a:	ff 24       	eor	r15, r15
 94c:	f0 2d       	mov	r31, r0
 94e:	b7 01       	movw	r22, r14
 950:	0e 94 0b 06 	call	0xc16	; 0xc16 <__divmodhi4>
 954:	16 2f       	mov	r17, r22
 956:	07 2f       	mov	r16, r23
 958:	0e 94 38 04 	call	0x870	; 0x870 <getPatFomHex>
 95c:	0e 94 7e 04 	call	0x8fc	; 0x8fc <writePattern>
		number = number / 10;
 960:	81 2f       	mov	r24, r17
 962:	90 2f       	mov	r25, r16
 964:	21 97       	sbiw	r28, 0x01	; 1
/* void writeDecInt(int number)
   Purpose: fills the seven segment display with
   an integer number, formatted as decimal.
   */
void writeDecInt(int number) {
	for (int i=0; i < DISPLAY_DIGITS; i++) {
 966:	99 f7       	brne	.-26     	; 0x94e <writeDecInt+0x1a>
		writePattern(getPatFomHex(number % 10));
		number = number / 10;
	}
}
 968:	df 91       	pop	r29
 96a:	cf 91       	pop	r28
 96c:	1f 91       	pop	r17
 96e:	0f 91       	pop	r16
 970:	ff 90       	pop	r15
 972:	ef 90       	pop	r14
 974:	08 95       	ret

00000976 <writeHexInt>:

/* void writeHexInt(int number)
   Purpose: fills the seven segment display with
   an integer number, formatted as hexadecimal.
   */
void writeHexInt(int number) {
 976:	ef 92       	push	r14
 978:	ff 92       	push	r15
 97a:	0f 93       	push	r16
 97c:	1f 93       	push	r17
 97e:	cf 93       	push	r28
 980:	df 93       	push	r29
 982:	ec 01       	movw	r28, r24
 984:	03 e0       	ldi	r16, 0x03	; 3
 986:	10 e0       	ldi	r17, 0x00	; 0
	for (int i=0; i < DISPLAY_DIGITS; i++) {
		writePattern(getPatFomHex(number % 16));
 988:	ee 24       	eor	r14, r14
 98a:	ff 24       	eor	r15, r15
 98c:	68 94       	set
 98e:	e4 f8       	bld	r14, 4
 990:	ce 01       	movw	r24, r28
 992:	b7 01       	movw	r22, r14
 994:	0e 94 0b 06 	call	0xc16	; 0xc16 <__divmodhi4>
 998:	0e 94 38 04 	call	0x870	; 0x870 <getPatFomHex>
 99c:	0e 94 7e 04 	call	0x8fc	; 0x8fc <writePattern>
		number = number / 16;
 9a0:	ce 01       	movw	r24, r28
 9a2:	dd 23       	and	r29, r29
 9a4:	0c f4       	brge	.+2      	; 0x9a8 <writeHexInt+0x32>
 9a6:	0f 96       	adiw	r24, 0x0f	; 15
 9a8:	ec 01       	movw	r28, r24
 9aa:	d5 95       	asr	r29
 9ac:	c7 95       	ror	r28
 9ae:	d5 95       	asr	r29
 9b0:	c7 95       	ror	r28
 9b2:	d5 95       	asr	r29
 9b4:	c7 95       	ror	r28
 9b6:	d5 95       	asr	r29
 9b8:	c7 95       	ror	r28
 9ba:	01 50       	subi	r16, 0x01	; 1
 9bc:	10 40       	sbci	r17, 0x00	; 0
/* void writeHexInt(int number)
   Purpose: fills the seven segment display with
   an integer number, formatted as hexadecimal.
   */
void writeHexInt(int number) {
	for (int i=0; i < DISPLAY_DIGITS; i++) {
 9be:	41 f7       	brne	.-48     	; 0x990 <writeHexInt+0x1a>
		writePattern(getPatFomHex(number % 16));
		number = number / 16;
	}
 9c0:	df 91       	pop	r29
 9c2:	cf 91       	pop	r28
 9c4:	1f 91       	pop	r17
 9c6:	0f 91       	pop	r16
 9c8:	ff 90       	pop	r15
 9ca:	ef 90       	pop	r14
 9cc:	08 95       	ret

000009ce <initalizeStepper>:


// set initial values for stepper
void initalizeStepper() {
	// enable output
	DDRA |= 0b00111111;
 9ce:	81 b1       	in	r24, 0x01	; 1
 9d0:	8f 63       	ori	r24, 0x3F	; 63
 9d2:	81 b9       	out	0x01, r24	; 1
	currentState = 0;
 9d4:	10 92 92 02 	sts	0x0292, r1
 9d8:	10 92 91 02 	sts	0x0291, r1
	PORTA = (PORTA & 0b11000000) | states[currentState];
 9dc:	82 b1       	in	r24, 0x02	; 2
 9de:	80 7c       	andi	r24, 0xC0	; 192
 9e0:	80 63       	ori	r24, 0x30	; 48
 9e2:	82 b9       	out	0x02, r24	; 2
	hallLow = 0;
 9e4:	10 92 95 02 	sts	0x0295, r1
	steps = 1;
 9e8:	81 e0       	ldi	r24, 0x01	; 1
 9ea:	90 e0       	ldi	r25, 0x00	; 0
 9ec:	90 93 94 02 	sts	0x0294, r25
 9f0:	80 93 93 02 	sts	0x0293, r24
}
 9f4:	08 95       	ret

000009f6 <stepTime>:


void stepTime(int stepTime, char direction) {
 9f6:	cf 93       	push	r28
 9f8:	c6 2f       	mov	r28, r22
	delaynms(stepTime);
 9fa:	0e 94 ea 05 	call	0xbd4	; 0xbd4 <delaynms>
	if(direction == 0) { //forward direction
 9fe:	cc 23       	and	r28, r28
 a00:	79 f5       	brne	.+94     	; 0xa60 <stepTime+0x6a>
		currentState++;
 a02:	80 91 91 02 	lds	r24, 0x0291
 a06:	90 91 92 02 	lds	r25, 0x0292
 a0a:	01 96       	adiw	r24, 0x01	; 1
 a0c:	90 93 92 02 	sts	0x0292, r25
 a10:	80 93 91 02 	sts	0x0291, r24
		if (currentState==4) currentState = 0;
 a14:	84 30       	cpi	r24, 0x04	; 4
 a16:	91 05       	cpc	r25, r1
 a18:	21 f4       	brne	.+8      	; 0xa22 <stepTime+0x2c>
 a1a:	10 92 92 02 	sts	0x0292, r1
 a1e:	10 92 91 02 	sts	0x0291, r1
		PORTA = (PORTA & 0b11000000) | states[currentState];
 a22:	82 b1       	in	r24, 0x02	; 2
 a24:	e0 91 91 02 	lds	r30, 0x0291
 a28:	f0 91 92 02 	lds	r31, 0x0292
 a2c:	e0 50       	subi	r30, 0x00	; 0
 a2e:	ff 4f       	sbci	r31, 0xFF	; 255
 a30:	80 7c       	andi	r24, 0xC0	; 192
 a32:	90 81       	ld	r25, Z
 a34:	89 2b       	or	r24, r25
 a36:	82 b9       	out	0x02, r24	; 2
		steps++;
 a38:	80 91 93 02 	lds	r24, 0x0293
 a3c:	90 91 94 02 	lds	r25, 0x0294
 a40:	01 96       	adiw	r24, 0x01	; 1
 a42:	90 93 94 02 	sts	0x0294, r25
 a46:	80 93 93 02 	sts	0x0293, r24
		if(hallLow == 1) {
 a4a:	80 91 95 02 	lds	r24, 0x0295
 a4e:	81 30       	cpi	r24, 0x01	; 1
 a50:	c1 f5       	brne	.+112    	; 0xac2 <stepTime+0xcc>
			steps = 0;
 a52:	10 92 94 02 	sts	0x0294, r1
 a56:	10 92 93 02 	sts	0x0293, r1
			hallLow = 0;
 a5a:	10 92 95 02 	sts	0x0295, r1
 a5e:	31 c0       	rjmp	.+98     	; 0xac2 <stepTime+0xcc>
		}
	}
	else { //reverse direction
		currentState--;
 a60:	80 91 91 02 	lds	r24, 0x0291
 a64:	90 91 92 02 	lds	r25, 0x0292
 a68:	01 97       	sbiw	r24, 0x01	; 1
 a6a:	90 93 92 02 	sts	0x0292, r25
 a6e:	80 93 91 02 	sts	0x0291, r24
		if (currentState==-1) currentState = 3;
 a72:	2f ef       	ldi	r18, 0xFF	; 255
 a74:	8f 3f       	cpi	r24, 0xFF	; 255
 a76:	92 07       	cpc	r25, r18
 a78:	31 f4       	brne	.+12     	; 0xa86 <stepTime+0x90>
 a7a:	83 e0       	ldi	r24, 0x03	; 3
 a7c:	90 e0       	ldi	r25, 0x00	; 0
 a7e:	90 93 92 02 	sts	0x0292, r25
 a82:	80 93 91 02 	sts	0x0291, r24
		PORTA = (PORTA & 0b11000000) | states[currentState];
 a86:	82 b1       	in	r24, 0x02	; 2
 a88:	e0 91 91 02 	lds	r30, 0x0291
 a8c:	f0 91 92 02 	lds	r31, 0x0292
 a90:	e0 50       	subi	r30, 0x00	; 0
 a92:	ff 4f       	sbci	r31, 0xFF	; 255
 a94:	80 7c       	andi	r24, 0xC0	; 192
 a96:	90 81       	ld	r25, Z
 a98:	89 2b       	or	r24, r25
 a9a:	82 b9       	out	0x02, r24	; 2
		steps--;
 a9c:	80 91 93 02 	lds	r24, 0x0293
 aa0:	90 91 94 02 	lds	r25, 0x0294
 aa4:	01 97       	sbiw	r24, 0x01	; 1
 aa6:	90 93 94 02 	sts	0x0294, r25
 aaa:	80 93 93 02 	sts	0x0293, r24
		if(hallLow == 1) {
 aae:	80 91 95 02 	lds	r24, 0x0295
 ab2:	81 30       	cpi	r24, 0x01	; 1
 ab4:	31 f4       	brne	.+12     	; 0xac2 <stepTime+0xcc>
			steps = 0;
 ab6:	10 92 94 02 	sts	0x0294, r1
 aba:	10 92 93 02 	sts	0x0293, r1
			hallLow = 0;
 abe:	10 92 95 02 	sts	0x0295, r1
		}				
	}
}
 ac2:	cf 91       	pop	r28
 ac4:	08 95       	ret

00000ac6 <forwardSteps>:

int forwardSteps(int current, int target) {
	int stepsRequired;
	
	// no wrap around
	if(target > current) stepsRequired = abs(target - current);
 ac6:	86 17       	cp	r24, r22
 ac8:	97 07       	cpc	r25, r23
 aca:	4c f4       	brge	.+18     	; 0xade <forwardSteps+0x18>
 acc:	68 1b       	sub	r22, r24
 ace:	79 0b       	sbc	r23, r25
 ad0:	1a f4       	brpl	.+6      	; 0xad8 <forwardSteps+0x12>
 ad2:	70 95       	com	r23
 ad4:	61 95       	neg	r22
 ad6:	7f 4f       	sbci	r23, 0xFF	; 255
 ad8:	86 2f       	mov	r24, r22
 ada:	97 2f       	mov	r25, r23
 adc:	08 95       	ret
	
	// wrap arround
	else stepsRequired = abs(200 - (target - current));
 ade:	86 1b       	sub	r24, r22
 ae0:	97 0b       	sbc	r25, r23
 ae2:	9c 01       	movw	r18, r24
 ae4:	28 53       	subi	r18, 0x38	; 56
 ae6:	3f 4f       	sbci	r19, 0xFF	; 255
 ae8:	1a f4       	brpl	.+6      	; 0xaf0 <forwardSteps+0x2a>
 aea:	30 95       	com	r19
 aec:	21 95       	neg	r18
 aee:	3f 4f       	sbci	r19, 0xFF	; 255
 af0:	82 2f       	mov	r24, r18
 af2:	93 2f       	mov	r25, r19
	
	return stepsRequired;
}
 af4:	08 95       	ret

00000af6 <reverseSteps>:

int reverseSteps(int current, int target) {
	int stepsRequired;
	
	// wrap around
	if(target < current) stepsRequired = abs(target - current);
 af6:	68 17       	cp	r22, r24
 af8:	79 07       	cpc	r23, r25
 afa:	4c f4       	brge	.+18     	; 0xb0e <reverseSteps+0x18>
 afc:	68 1b       	sub	r22, r24
 afe:	79 0b       	sbc	r23, r25
 b00:	1a f4       	brpl	.+6      	; 0xb08 <reverseSteps+0x12>
 b02:	70 95       	com	r23
 b04:	61 95       	neg	r22
 b06:	7f 4f       	sbci	r23, 0xFF	; 255
 b08:	86 2f       	mov	r24, r22
 b0a:	97 2f       	mov	r25, r23
 b0c:	08 95       	ret

	// no wrap around
	else stepsRequired = abs(200 - (target - current));
 b0e:	86 1b       	sub	r24, r22
 b10:	97 0b       	sbc	r25, r23
 b12:	9c 01       	movw	r18, r24
 b14:	28 53       	subi	r18, 0x38	; 56
 b16:	3f 4f       	sbci	r19, 0xFF	; 255
 b18:	1a f4       	brpl	.+6      	; 0xb20 <reverseSteps+0x2a>
 b1a:	30 95       	com	r19
 b1c:	21 95       	neg	r18
 b1e:	3f 4f       	sbci	r19, 0xFF	; 255
 b20:	82 2f       	mov	r24, r18
 b22:	93 2f       	mov	r25, r19
	
	return stepsRequired;
}
 b24:	08 95       	ret

00000b26 <stepperMoveTo>:
		}				
	}
}

// function to calculate how stepper should rotate
void stepperMoveTo(int nextPosition){
 b26:	ef 92       	push	r14
 b28:	ff 92       	push	r15
 b2a:	0f 93       	push	r16
 b2c:	1f 93       	push	r17
 b2e:	cf 93       	push	r28
 b30:	df 93       	push	r29
 b32:	7c 01       	movw	r14, r24
	if(forwardSteps(steps, nextPosition) < reverseSteps(steps, nextPosition)) {
 b34:	c0 91 93 02 	lds	r28, 0x0293
 b38:	d0 91 94 02 	lds	r29, 0x0294
 b3c:	ce 01       	movw	r24, r28
 b3e:	b7 01       	movw	r22, r14
 b40:	0e 94 63 05 	call	0xac6	; 0xac6 <forwardSteps>
 b44:	8c 01       	movw	r16, r24
 b46:	ce 01       	movw	r24, r28
 b48:	b7 01       	movw	r22, r14
 b4a:	0e 94 7b 05 	call	0xaf6	; 0xaf6 <reverseSteps>
 b4e:	ec 01       	movw	r28, r24
 b50:	08 17       	cp	r16, r24
 b52:	19 07       	cpc	r17, r25
 b54:	94 f4       	brge	.+36     	; 0xb7a <stepperMoveTo+0x54>
		int j = forwardSteps(steps, nextPosition);
		writeDecInt(j);
 b56:	c8 01       	movw	r24, r16
 b58:	0e 94 9a 04 	call	0x934	; 0x934 <writeDecInt>
		for(int i = 0;i < j;i++) {
 b5c:	10 16       	cp	r1, r16
 b5e:	11 06       	cpc	r1, r17
 b60:	ec f4       	brge	.+58     	; 0xb9c <stepperMoveTo+0x76>
 b62:	c0 e0       	ldi	r28, 0x00	; 0
 b64:	d0 e0       	ldi	r29, 0x00	; 0
			stepTime(15,0);
 b66:	8f e0       	ldi	r24, 0x0F	; 15
 b68:	90 e0       	ldi	r25, 0x00	; 0
 b6a:	60 e0       	ldi	r22, 0x00	; 0
 b6c:	0e 94 fb 04 	call	0x9f6	; 0x9f6 <stepTime>
// function to calculate how stepper should rotate
void stepperMoveTo(int nextPosition){
	if(forwardSteps(steps, nextPosition) < reverseSteps(steps, nextPosition)) {
		int j = forwardSteps(steps, nextPosition);
		writeDecInt(j);
		for(int i = 0;i < j;i++) {
 b70:	21 96       	adiw	r28, 0x01	; 1
 b72:	c0 17       	cp	r28, r16
 b74:	d1 07       	cpc	r29, r17
 b76:	b9 f7       	brne	.-18     	; 0xb66 <stepperMoveTo+0x40>
 b78:	11 c0       	rjmp	.+34     	; 0xb9c <stepperMoveTo+0x76>
		}
	}
	
	else {
		int j = reverseSteps(steps, nextPosition);
		writeDecInt(j);
 b7a:	0e 94 9a 04 	call	0x934	; 0x934 <writeDecInt>
		for(int i = 0;i < j;i++) {
 b7e:	1c 16       	cp	r1, r28
 b80:	1d 06       	cpc	r1, r29
 b82:	64 f4       	brge	.+24     	; 0xb9c <stepperMoveTo+0x76>
 b84:	00 e0       	ldi	r16, 0x00	; 0
 b86:	10 e0       	ldi	r17, 0x00	; 0
			stepTime(15,1);
 b88:	8f e0       	ldi	r24, 0x0F	; 15
 b8a:	90 e0       	ldi	r25, 0x00	; 0
 b8c:	61 e0       	ldi	r22, 0x01	; 1
 b8e:	0e 94 fb 04 	call	0x9f6	; 0x9f6 <stepTime>
	}
	
	else {
		int j = reverseSteps(steps, nextPosition);
		writeDecInt(j);
		for(int i = 0;i < j;i++) {
 b92:	0f 5f       	subi	r16, 0xFF	; 255
 b94:	1f 4f       	sbci	r17, 0xFF	; 255
 b96:	0c 17       	cp	r16, r28
 b98:	1d 07       	cpc	r17, r29
 b9a:	b1 f7       	brne	.-20     	; 0xb88 <stepperMoveTo+0x62>
			stepTime(15,1);
		}
	}
	
	if(motorWaitForStepper == 1) {
 b9c:	80 91 05 01 	lds	r24, 0x0105
 ba0:	90 91 06 01 	lds	r25, 0x0106
 ba4:	81 30       	cpi	r24, 0x01	; 1
 ba6:	91 05       	cpc	r25, r1
 ba8:	41 f4       	brne	.+16     	; 0xbba <stepperMoveTo+0x94>
		// start the motor back up
		setMotorFwd();
 baa:	0e 94 2d 01 	call	0x25a	; 0x25a <setMotorFwd>
		// clear the flag
		motorWaitForStepper = 0;
 bae:	10 92 06 01 	sts	0x0106, r1
 bb2:	10 92 05 01 	sts	0x0105, r1
		// fire the exit logic again
		exitHandler();
 bb6:	0e 94 da 01 	call	0x3b4	; 0x3b4 <exitHandler>
	}
}
 bba:	df 91       	pop	r29
 bbc:	cf 91       	pop	r28
 bbe:	1f 91       	pop	r17
 bc0:	0f 91       	pop	r16
 bc2:	ff 90       	pop	r15
 bc4:	ef 90       	pop	r14
 bc6:	08 95       	ret

00000bc8 <initializeTimer>:
#include <avr/io.h>

void initializeTimer() {
	// bitwise OR to set timer/counter control register
	// to cpu clock, pure timer.
	TCCR1B|=_BV(CS10);
 bc8:	e1 e8       	ldi	r30, 0x81	; 129
 bca:	f0 e0       	ldi	r31, 0x00	; 0
 bcc:	80 81       	ld	r24, Z
 bce:	81 60       	ori	r24, 0x01	; 1
 bd0:	80 83       	st	Z, r24
} 
 bd2:	08 95       	ret

00000bd4 <delaynms>:

void delaynms(int n)   // delay milliseconds
{
 bd4:	9c 01       	movw	r18, r24
	// Set waveform generator bits to 0100 (count up and
	// reset on hit)
	TCCR1B |=_BV(WGM12);
 bd6:	e1 e8       	ldi	r30, 0x81	; 129
 bd8:	f0 e0       	ldi	r31, 0x00	; 0
 bda:	80 81       	ld	r24, Z
 bdc:	88 60       	ori	r24, 0x08	; 8
 bde:	80 83       	st	Z, r24
	
	// Set the clock prescaler to 1/64th
	TCCR1B |= 0b00000011;
 be0:	80 81       	ld	r24, Z
 be2:	83 60       	ori	r24, 0x03	; 3
 be4:	80 83       	st	Z, r24

	for(int i=0; i<n; i++) {
 be6:	12 16       	cp	r1, r18
 be8:	13 06       	cpc	r1, r19
 bea:	a4 f4       	brge	.+40     	; 0xc14 <delaynms+0x40>
 bec:	80 e0       	ldi	r24, 0x00	; 0
 bee:	90 e0       	ldi	r25, 0x00	; 0
		// set the output compare register
		// to 1 ms
		OCR1A = 125;
 bf0:	e8 e8       	ldi	r30, 0x88	; 136
 bf2:	f0 e0       	ldi	r31, 0x00	; 0
 bf4:	4d e7       	ldi	r20, 0x7D	; 125
 bf6:	50 e0       	ldi	r21, 0x00	; 0

		// set initial value to zero
		TCNT1 = 0;
 bf8:	a4 e8       	ldi	r26, 0x84	; 132
 bfa:	b0 e0       	ldi	r27, 0x00	; 0
	TCCR1B |= 0b00000011;

	for(int i=0; i<n; i++) {
		// set the output compare register
		// to 1 ms
		OCR1A = 125;
 bfc:	51 83       	std	Z+1, r21	; 0x01
 bfe:	40 83       	st	Z, r20

		// set initial value to zero
		TCNT1 = 0;
 c00:	11 96       	adiw	r26, 0x01	; 1
 c02:	1c 92       	st	X, r1
 c04:	1e 92       	st	-X, r1

		// enable output compare interrupt enable
		//TIMSK1|=0b00000010;

		// begin timer
		TIFR1|=_BV(OCF1A);
 c06:	b1 9a       	sbi	0x16, 1	; 22

		// poll until we reach our number of milliseconds
		while(1) {
			if((TIFR1 & 0x02) == 0x02) break;
 c08:	b1 9b       	sbis	0x16, 1	; 22
 c0a:	fe cf       	rjmp	.-4      	; 0xc08 <delaynms+0x34>
	TCCR1B |=_BV(WGM12);
	
	// Set the clock prescaler to 1/64th
	TCCR1B |= 0b00000011;

	for(int i=0; i<n; i++) {
 c0c:	01 96       	adiw	r24, 0x01	; 1
 c0e:	82 17       	cp	r24, r18
 c10:	93 07       	cpc	r25, r19
 c12:	a1 f7       	brne	.-24     	; 0xbfc <delaynms+0x28>
 c14:	08 95       	ret

00000c16 <__divmodhi4>:
 c16:	97 fb       	bst	r25, 7
 c18:	09 2e       	mov	r0, r25
 c1a:	07 26       	eor	r0, r23
 c1c:	0a d0       	rcall	.+20     	; 0xc32 <__divmodhi4_neg1>
 c1e:	77 fd       	sbrc	r23, 7
 c20:	04 d0       	rcall	.+8      	; 0xc2a <__divmodhi4_neg2>
 c22:	27 d0       	rcall	.+78     	; 0xc72 <__udivmodhi4>
 c24:	06 d0       	rcall	.+12     	; 0xc32 <__divmodhi4_neg1>
 c26:	00 20       	and	r0, r0
 c28:	1a f4       	brpl	.+6      	; 0xc30 <__divmodhi4_exit>

00000c2a <__divmodhi4_neg2>:
 c2a:	70 95       	com	r23
 c2c:	61 95       	neg	r22
 c2e:	7f 4f       	sbci	r23, 0xFF	; 255

00000c30 <__divmodhi4_exit>:
 c30:	08 95       	ret

00000c32 <__divmodhi4_neg1>:
 c32:	f6 f7       	brtc	.-4      	; 0xc30 <__divmodhi4_exit>
 c34:	90 95       	com	r25
 c36:	81 95       	neg	r24
 c38:	9f 4f       	sbci	r25, 0xFF	; 255
 c3a:	08 95       	ret

00000c3c <__divmodsi4>:
 c3c:	97 fb       	bst	r25, 7
 c3e:	09 2e       	mov	r0, r25
 c40:	05 26       	eor	r0, r21
 c42:	0e d0       	rcall	.+28     	; 0xc60 <__divmodsi4_neg1>
 c44:	57 fd       	sbrc	r21, 7
 c46:	04 d0       	rcall	.+8      	; 0xc50 <__divmodsi4_neg2>
 c48:	28 d0       	rcall	.+80     	; 0xc9a <__udivmodsi4>
 c4a:	0a d0       	rcall	.+20     	; 0xc60 <__divmodsi4_neg1>
 c4c:	00 1c       	adc	r0, r0
 c4e:	38 f4       	brcc	.+14     	; 0xc5e <__divmodsi4_exit>

00000c50 <__divmodsi4_neg2>:
 c50:	50 95       	com	r21
 c52:	40 95       	com	r20
 c54:	30 95       	com	r19
 c56:	21 95       	neg	r18
 c58:	3f 4f       	sbci	r19, 0xFF	; 255
 c5a:	4f 4f       	sbci	r20, 0xFF	; 255
 c5c:	5f 4f       	sbci	r21, 0xFF	; 255

00000c5e <__divmodsi4_exit>:
 c5e:	08 95       	ret

00000c60 <__divmodsi4_neg1>:
 c60:	f6 f7       	brtc	.-4      	; 0xc5e <__divmodsi4_exit>
 c62:	90 95       	com	r25
 c64:	80 95       	com	r24
 c66:	70 95       	com	r23
 c68:	61 95       	neg	r22
 c6a:	7f 4f       	sbci	r23, 0xFF	; 255
 c6c:	8f 4f       	sbci	r24, 0xFF	; 255
 c6e:	9f 4f       	sbci	r25, 0xFF	; 255
 c70:	08 95       	ret

00000c72 <__udivmodhi4>:
 c72:	aa 1b       	sub	r26, r26
 c74:	bb 1b       	sub	r27, r27
 c76:	51 e1       	ldi	r21, 0x11	; 17
 c78:	07 c0       	rjmp	.+14     	; 0xc88 <__udivmodhi4_ep>

00000c7a <__udivmodhi4_loop>:
 c7a:	aa 1f       	adc	r26, r26
 c7c:	bb 1f       	adc	r27, r27
 c7e:	a6 17       	cp	r26, r22
 c80:	b7 07       	cpc	r27, r23
 c82:	10 f0       	brcs	.+4      	; 0xc88 <__udivmodhi4_ep>
 c84:	a6 1b       	sub	r26, r22
 c86:	b7 0b       	sbc	r27, r23

00000c88 <__udivmodhi4_ep>:
 c88:	88 1f       	adc	r24, r24
 c8a:	99 1f       	adc	r25, r25
 c8c:	5a 95       	dec	r21
 c8e:	a9 f7       	brne	.-22     	; 0xc7a <__udivmodhi4_loop>
 c90:	80 95       	com	r24
 c92:	90 95       	com	r25
 c94:	bc 01       	movw	r22, r24
 c96:	cd 01       	movw	r24, r26
 c98:	08 95       	ret

00000c9a <__udivmodsi4>:
 c9a:	a1 e2       	ldi	r26, 0x21	; 33
 c9c:	1a 2e       	mov	r1, r26
 c9e:	aa 1b       	sub	r26, r26
 ca0:	bb 1b       	sub	r27, r27
 ca2:	fd 01       	movw	r30, r26
 ca4:	0d c0       	rjmp	.+26     	; 0xcc0 <__udivmodsi4_ep>

00000ca6 <__udivmodsi4_loop>:
 ca6:	aa 1f       	adc	r26, r26
 ca8:	bb 1f       	adc	r27, r27
 caa:	ee 1f       	adc	r30, r30
 cac:	ff 1f       	adc	r31, r31
 cae:	a2 17       	cp	r26, r18
 cb0:	b3 07       	cpc	r27, r19
 cb2:	e4 07       	cpc	r30, r20
 cb4:	f5 07       	cpc	r31, r21
 cb6:	20 f0       	brcs	.+8      	; 0xcc0 <__udivmodsi4_ep>
 cb8:	a2 1b       	sub	r26, r18
 cba:	b3 0b       	sbc	r27, r19
 cbc:	e4 0b       	sbc	r30, r20
 cbe:	f5 0b       	sbc	r31, r21

00000cc0 <__udivmodsi4_ep>:
 cc0:	66 1f       	adc	r22, r22
 cc2:	77 1f       	adc	r23, r23
 cc4:	88 1f       	adc	r24, r24
 cc6:	99 1f       	adc	r25, r25
 cc8:	1a 94       	dec	r1
 cca:	69 f7       	brne	.-38     	; 0xca6 <__udivmodsi4_loop>
 ccc:	60 95       	com	r22
 cce:	70 95       	com	r23
 cd0:	80 95       	com	r24
 cd2:	90 95       	com	r25
 cd4:	9b 01       	movw	r18, r22
 cd6:	ac 01       	movw	r20, r24
 cd8:	bd 01       	movw	r22, r26
 cda:	cf 01       	movw	r24, r30
 cdc:	08 95       	ret

00000cde <_exit>:
 cde:	f8 94       	cli

00000ce0 <__stop_program>:
 ce0:	ff cf       	rjmp	.-2      	; 0xce0 <__stop_program>
